MODULE Linux arm 4D587CCFB380694094FFC1B26FD374E40 libbreakpad.so
INFO CODE_ID CF7C584D80B3406994FFC1B26FD374E42F795747
FUNC 9c20 94 0 <name omitted>
FUNC 9cb4 30 0 <name omitted>
FUNC 9d10 94 0 JNI_OnLoad
FUNC 9da4 44 0 DumpCallback(google_breakpad::MinidumpDescriptor const&, void*, bool)
FUNC 9de8 140 0 Java_cn_onlinecache_breakpad_NativeBreakpad_nativeInit
FUNC 9f28 3e 0 std::basic_string<char, std::char_traits<char>, std::allocator<char> >::basic_string(char const*, std::allocator<char> const&)
FUNC 9f68 38 0 Java_cn_onlinecache_breakpad_NativeBreakpad_nativeTestCrash
FUNC 9fa0 3e 0 std::basic_string<char, std::char_traits<char>, std::allocator<char> >::basic_string(std::string const&)
FUNC 9fe0 60 0 std::priv::_String_base<char, std::allocator<char> >::_M_allocate_block(unsigned int)
FUNC a040 10 0 std::__node_alloc::allocate(unsigned int&)
FUNC a050 1e 0 std::priv::_String_base<char, std::allocator<char> >::_M_deallocate_block()
FUNC a070 368 0 google_breakpad::ExceptionHandler::ExceptionHandler(google_breakpad::MinidumpDescriptor const&, bool (*)(void*), bool (*)(google_breakpad::MinidumpDescriptor const&, void*, bool), void*, bool, int)
FUNC a3d8 1f0 0 google_breakpad::ExceptionHandler::InstallHandlersLocked()
FUNC a5c8 480 0 google_breakpad::ExceptionHandler::~ExceptionHandler()
FUNC aa48 114 0 google_breakpad::ExceptionHandler::RestoreHandlersLocked()
FUNC ab5c 3f0 0 google_breakpad::ExceptionHandler::SignalHandler(int, siginfo*, void*)
FUNC af4c 134 0 google_breakpad::ExceptionHandler::HandleSignal(int, siginfo*, void*)
FUNC b080 8c 0 google_breakpad::ExceptionHandler::ThreadEntry(void*)
FUNC b10c e0 0 google_breakpad::ExceptionHandler::WaitForContinueSignal()
FUNC b1ec 108 0 google_breakpad::ExceptionHandler::DoDump(int, void const*, unsigned int)
FUNC b2f4 4b0 0 google_breakpad::ExceptionHandler::GenerateDump(google_breakpad::ExceptionHandler::CrashContext*)
FUNC b7a4 7c 0 google_breakpad::ExceptionHandler::SimulateSignalDelivery(int)
FUNC b820 c0 0 google_breakpad::ExceptionHandler::SendContinueSignalToChild()
FUNC b8e0 1c8 0 google_breakpad::ExceptionHandler::WriteMinidump(std::string const&, bool (*)(google_breakpad::MinidumpDescriptor const&, void*, bool), void*)
FUNC baa8 17c 0 google_breakpad::ExceptionHandler::WriteMinidump()
FUNC bc24 dc 0 google_breakpad::ExceptionHandler::AddMappingInfo(std::string const&, unsigned char const*, unsigned int, unsigned int, unsigned int)
FUNC bd00 a4 0 google_breakpad::ExceptionHandler::RegisterAppMemory(void*, unsigned int)
FUNC bda4 48 0 google_breakpad::ExceptionHandler::UnregisterAppMemory(void*)
FUNC bdec 1d8 0 google_breakpad::ExceptionHandler::WriteMinidumpForChild(int, int, std::string const&, bool (*)(google_breakpad::MinidumpDescriptor const&, void*, bool), void*)
FUNC bfc4 10 0 google_breakpad::SetFirstChanceExceptionHandler(bool (*)(int, void*, void*))
FUNC bfd4 1c8 0 std::vector<google_breakpad::ExceptionHandler*, std::allocator<google_breakpad::ExceptionHandler*> >::_M_insert_overflow(google_breakpad::ExceptionHandler**, google_breakpad::ExceptionHandler* const&, std::__true_type const&, unsigned int, bool)
FUNC c19c 140 0 google_breakpad::MinidumpDescriptor::MinidumpDescriptor(google_breakpad::MinidumpDescriptor const&)
FUNC c2dc 144 0 google_breakpad::MinidumpDescriptor::operator=(google_breakpad::MinidumpDescriptor const&)
FUNC c420 3d0 0 google_breakpad::MinidumpDescriptor::UpdatePath()
FUNC c7f0 210 0 std::string::_M_append(char const*, char const*)
FUNC ca00 1c8 0 std::string& std::string::_M_appendT<char const*>(char const*, char const*, std::forward_iterator_tag const&)
FUNC cbc8 68 0 logger::initializeCrashLogWriter()
FUNC cc30 48 0 logger::writeToCrashLog(char const*)
FUNC cc78 18 0 logger::write(char const*, unsigned int)
FUNC cc90 124c 0 google_breakpad::WriteMicrodump(int, void const*, unsigned int, std::list<google_breakpad::MappingEntry, std::allocator<google_breakpad::MappingEntry> > const&, bool, unsigned int, bool, google_breakpad::MicrodumpExtraInfo const&)
FUNC dedc 138 0 google_breakpad::PageAllocator::Alloc(unsigned int)
FUNC e014 554 0 (anonymous namespace)::MicrodumpWriter::DumpModule(google_breakpad::MappingInfo const&, bool, unsigned int, unsigned char const*)
FUNC e568 1e4 0 void std::vector<unsigned char, google_breakpad::PageStdAllocator<unsigned char> >::_M_range_insert<unsigned char const*>(unsigned char*, unsigned char const*, unsigned char const*, std::forward_iterator_tag const&)
FUNC e74c 144 0 google_breakpad::LinuxDumper::LinuxDumper(int, char const*)
FUNC e890 1a4 0 std::vector<unsigned int, google_breakpad::PageStdAllocator<unsigned int> >::resize(unsigned int, unsigned int const&)
FUNC ea34 74 0 google_breakpad::LinuxDumper::~LinuxDumper()
FUNC eaa8 4 0 google_breakpad::LinuxDumper::~LinuxDumper()
FUNC eaac 4c 0 google_breakpad::LinuxDumper::Init()
FUNC eaf8 14c 0 google_breakpad::LinuxDumper::ReadAuxv()
FUNC ec44 14 0 google_breakpad::LinuxDumper::LateInit()
FUNC ec58 214 0 google_breakpad::LinuxDumper::LatePostprocessMappings()
FUNC ee6c 20c 0 google_breakpad::LinuxDumper::ElfFileIdentifierForMapping(google_breakpad::MappingInfo const&, bool, unsigned int, google_breakpad::wasteful_vector<unsigned char>&)
FUNC f078 54 0 google_breakpad::LinuxDumper::GetMappingAbsolutePath(google_breakpad::MappingInfo const&, char*) const
FUNC f0cc 1d4 0 google_breakpad::LinuxDumper::HandleDeletedFileInMapping(char*) const
FUNC f2a0 1c 0 google_breakpad::LinuxDumper::SetCrashInfoFromSigInfo(siginfo const&)
FUNC f2bc 30 0 google_breakpad::LinuxDumper::GetCrashSignalString() const
FUNC f2ec 258 0 google_breakpad::LinuxDumper::GetMappingEffectiveNameAndPath(google_breakpad::MappingInfo const&, char*, unsigned int, char*, unsigned int)
FUNC f544 5a0 0 google_breakpad::LinuxDumper::EnumerateMappings()
FUNC fae4 4c 0 google_breakpad::LinuxDumper::GetLoadedElfHeader(unsigned int, elf32_hdr*)
FUNC fb30 124 0 google_breakpad::LinuxDumper::ParseLoadedElfProgramHeaders(elf32_hdr*, unsigned int, unsigned int*, unsigned int*, unsigned int*)
FUNC fc54 b4 0 google_breakpad::LinuxDumper::HasAndroidPackedRelocations(unsigned int, unsigned int, unsigned int)
FUNC fd08 17c 0 google_breakpad::LinuxDumper::GetEffectiveLoadBias(elf32_hdr*, unsigned int)
FUNC fe84 a0 0 google_breakpad::LinuxDumper::GetStackInfo(void const**, unsigned int*, unsigned int)
FUNC ff24 5c 0 google_breakpad::LinuxDumper::FindMapping(void const*) const
FUNC ff80 25c 0 google_breakpad::LinuxDumper::SanitizeStackCopy(unsigned char*, unsigned int, unsigned int, unsigned int)
FUNC 101dc 58 0 google_breakpad::LinuxDumper::FindMappingNoBias(unsigned int) const
FUNC 10234 58 0 google_breakpad::LinuxDumper::StackHasPointerToMapping(unsigned char const*, unsigned int, unsigned int, google_breakpad::MappingInfo const&)
FUNC 1028c 188 0 std::vector<unsigned int, google_breakpad::PageStdAllocator<unsigned int> >::_M_fill_insert_aux(unsigned int*, unsigned int, unsigned int const&, std::__false_type const&)
FUNC 10414 38 0 google_breakpad::LinuxPtraceDumper::LinuxPtraceDumper(int)
FUNC 1044c d4 0 google_breakpad::LinuxPtraceDumper::BuildProcPath(char*, int, char const*) const
FUNC 10520 e4 0 google_breakpad::LinuxPtraceDumper::CopyFromProcess(void*, int, void const*, unsigned int)
FUNC 10604 104 0 <name omitted>
FUNC 10708 ac 0 <name omitted>
FUNC 107b4 3cc 0 google_breakpad::LinuxPtraceDumper::GetThreadInfoByIndex(unsigned int, google_breakpad::ThreadInfo*)
FUNC 10b80 8 0 google_breakpad::LinuxPtraceDumper::IsPostMortem() const
FUNC 10b88 1ec 0 google_breakpad::LinuxPtraceDumper::ThreadsSuspend()
FUNC 10d74 1a4 0 std::vector<int, google_breakpad::PageStdAllocator<int> >::resize(unsigned int, int const&)
FUNC 10f18 b8 0 google_breakpad::LinuxPtraceDumper::ThreadsResume()
FUNC 10fd0 2e4 0 google_breakpad::LinuxPtraceDumper::EnumerateThreads()
FUNC 112b4 14 0 google_breakpad::LinuxPtraceDumper::~LinuxPtraceDumper()
FUNC 112c8 188 0 std::vector<int, google_breakpad::PageStdAllocator<int> >::_M_fill_insert_aux(int*, unsigned int, int const&, std::__false_type const&)
FUNC 11450 e0 0 google_breakpad::WriteMinidump(char const*, int, void const*, unsigned int, bool, unsigned int, bool)
FUNC 11530 190 0 (anonymous namespace)::WriteMinidumpImpl(char const*, int, long, int, void const*, unsigned int, std::list<google_breakpad::MappingEntry, std::allocator<google_breakpad::MappingEntry> > const&, std::list<google_breakpad::AppMemory, std::allocator<google_breakpad::AppMemory> > const&, bool, unsigned int, bool)
FUNC 116c0 e4 0 google_breakpad::WriteMinidump(int, int, void const*, unsigned int, bool, unsigned int, bool)
FUNC 117a4 19c 0 google_breakpad::WriteMinidump(char const*, int, int)
FUNC 11940 194 0 (anonymous namespace)::MinidumpWriter::Init()
FUNC 11ad4 2244 0 (anonymous namespace)::MinidumpWriter::Dump()
FUNC 13d18 50 0 google_breakpad::WriteMinidump(char const*, int, void const*, unsigned int, std::list<google_breakpad::MappingEntry, std::allocator<google_breakpad::MappingEntry> > const&, std::list<google_breakpad::AppMemory, std::allocator<google_breakpad::AppMemory> > const&, bool, unsigned int, bool)
FUNC 13d68 54 0 google_breakpad::WriteMinidump(int, int, void const*, unsigned int, std::list<google_breakpad::MappingEntry, std::allocator<google_breakpad::MappingEntry> > const&, std::list<google_breakpad::AppMemory, std::allocator<google_breakpad::AppMemory> > const&, bool, unsigned int, bool)
FUNC 13dbc 58 0 google_breakpad::WriteMinidump(char const*, long, int, void const*, unsigned int, std::list<google_breakpad::MappingEntry, std::allocator<google_breakpad::MappingEntry> > const&, std::list<google_breakpad::AppMemory, std::allocator<google_breakpad::AppMemory> > const&, bool, unsigned int, bool)
FUNC 13e14 5c 0 google_breakpad::WriteMinidump(int, long, int, void const*, unsigned int, std::list<google_breakpad::MappingEntry, std::allocator<google_breakpad::MappingEntry> > const&, std::list<google_breakpad::AppMemory, std::allocator<google_breakpad::AppMemory> > const&, bool, unsigned int, bool)
FUNC 13e70 114 0 google_breakpad::WriteMinidump(char const*, std::list<google_breakpad::MappingEntry, std::allocator<google_breakpad::MappingEntry> > const&, std::list<google_breakpad::AppMemory, std::allocator<google_breakpad::AppMemory> > const&, google_breakpad::LinuxDumper*)
FUNC 13f84 228 0 (anonymous namespace)::MinidumpWriter::WriteFile(MDLocationDescriptor*, char const*)
FUNC 141ac 250 0 (anonymous namespace)::MinidumpWriter::FillThreadStack(MDRawThread*, unsigned int, unsigned int, int, unsigned char**)
FUNC 143fc 1bc 0 std::vector<MDMemoryDescriptor, google_breakpad::PageStdAllocator<MDMemoryDescriptor> >::_M_insert_overflow_aux(MDMemoryDescriptor*, MDMemoryDescriptor const&, std::__false_type const&, unsigned int, bool)
FUNC 145b8 1d0 0 (anonymous namespace)::MinidumpWriter::FillRawModule(google_breakpad::MappingInfo const&, bool, unsigned int, MDRawModule*, unsigned char const*)
FUNC 14788 1a0 0 google_breakpad::CpuSet::ParseSysFile(int)
FUNC 14928 1d8 0 google_breakpad::ProcCpuInfoReader::GetNextField(char const**)
FUNC 14b00 168 0 std::vector<char, google_breakpad::PageStdAllocator<char> >::resize(unsigned int, char const&)
FUNC 14c68 19c 0 std::vector<char, google_breakpad::PageStdAllocator<char> >::_M_fill_insert_aux(char*, unsigned int, char const&, std::__false_type const&)
FUNC 14e04 20 0 google_breakpad::MinidumpFileWriter::MinidumpFileWriter()
FUNC 14e24 90 0 google_breakpad::MinidumpFileWriter::~MinidumpFileWriter()
FUNC 14eb4 a8 0 google_breakpad::MinidumpFileWriter::Close()
FUNC 14f5c 60 0 google_breakpad::MinidumpFileWriter::Open(char const*)
FUNC 14fbc b4 0 google_breakpad::MinidumpFileWriter::SetFile(int)
FUNC 15070 16c 0 google_breakpad::MinidumpFileWriter::CopyStringToMDString(wchar_t const*, unsigned int, google_breakpad::TypedMDRVA<MDString>*)
FUNC 151dc 160 0 google_breakpad::MinidumpFileWriter::CopyStringToMDString(char const*, unsigned int, google_breakpad::TypedMDRVA<MDString>*)
FUNC 1533c 4 0 google_breakpad::MinidumpFileWriter::WriteString(wchar_t const*, unsigned int, MDLocationDescriptor*)
FUNC 15340 2cc 0 bool google_breakpad::MinidumpFileWriter::WriteStringCore<wchar_t>(wchar_t const*, unsigned int, MDLocationDescriptor*)
FUNC 1560c 4 0 google_breakpad::MinidumpFileWriter::WriteString(char const*, unsigned int, MDLocationDescriptor*)
FUNC 15610 2cc 0 bool google_breakpad::MinidumpFileWriter::WriteStringCore<char>(char const*, unsigned int, MDLocationDescriptor*)
FUNC 158dc 180 0 google_breakpad::MinidumpFileWriter::WriteMemory(void const*, unsigned int, MDMemoryDescriptor*)
FUNC 15a5c c0 0 google_breakpad::UntypedMDRVA::Allocate(unsigned int)
FUNC 15b1c b0 0 google_breakpad::MinidumpFileWriter::Allocate(unsigned int)
FUNC 15bcc c0 0 google_breakpad::MinidumpFileWriter::Copy(unsigned int, void const*, int)
FUNC 15c8c c0 0 google_breakpad::UntypedMDRVA::Copy(unsigned int, void const*, unsigned int)
FUNC 15d88 1a4 0 google_breakpad::UTF8ToUTF16(char const*, std::vector<unsigned short, std::allocator<unsigned short> >*)
FUNC 15f2c ac 0 google_breakpad::UTF8ToUTF16Char(char const*, int, unsigned short*)
FUNC 15fd8 1a4 0 google_breakpad::UTF32ToUTF16(wchar_t const*, std::vector<unsigned short, std::allocator<unsigned short> >*)
FUNC 1617c 80 0 google_breakpad::UTF32ToUTF16Char(wchar_t, unsigned short*)
FUNC 161fc 1bc 0 google_breakpad::UTF16ToUTF8(std::vector<unsigned short, std::allocator<unsigned short> > const&, bool)
FUNC 163b8 188 0 std::vector<unsigned short, std::allocator<unsigned short> >::_M_fill_insert_aux(unsigned short*, unsigned int, unsigned short const&, std::__false_type const&)
FUNC 16540 1c0 0 std::vector<unsigned short, std::allocator<unsigned short> >::_M_insert_overflow(unsigned short*, unsigned short const&, std::__true_type const&, unsigned int, bool)
FUNC 16700 30 0 <name omitted>
FUNC 16730 8 0 <name omitted>
FUNC 16738 1f0 0 google_breakpad::FindElfSection(void const*, char const*, unsigned int, void const**, unsigned int*)
FUNC 16928 1d0 0 google_breakpad::FindElfSegments(void const*, unsigned int, google_breakpad::wasteful_vector<google_breakpad::ElfSegment>*)
FUNC 16af8 180 0 std::vector<google_breakpad::ElfSegment, google_breakpad::PageStdAllocator<google_breakpad::ElfSegment> >::_M_insert_overflow_aux(google_breakpad::ElfSegment*, google_breakpad::ElfSegment const&, std::__false_type const&, unsigned int, bool)
FUNC 16c78 f4 0 google_breakpad::FileID::FileID(char const*)
FUNC 16d6c 428 0 google_breakpad::FileID::ElfFileIdentifierFromMappedFile(void const*, google_breakpad::wasteful_vector<unsigned char>&)
FUNC 17194 80 0 google_breakpad::FileID::ElfFileIdentifier(google_breakpad::wasteful_vector<unsigned char>&)
FUNC 17214 134 0 google_breakpad::FileID::ConvertIdentifierToUUIDString(google_breakpad::wasteful_vector<unsigned char> const&)
FUNC 17348 ac 0 google_breakpad::FileID::ConvertIdentifierToString(google_breakpad::wasteful_vector<unsigned char> const&)
FUNC 173f4 168 0 std::vector<unsigned char, google_breakpad::PageStdAllocator<unsigned char> >::resize(unsigned int, unsigned char const&)
FUNC 1755c 19c 0 std::vector<unsigned char, google_breakpad::PageStdAllocator<unsigned char> >::_M_fill_insert_aux(unsigned char*, unsigned int, unsigned char const&, std::__false_type const&)
FUNC 176f8 ac 0 CreateGUID(MDGUID*)
FUNC 177a4 7c 0 GUIDToString(MDGUID const*, char*, int)
FUNC 17820 ac 0 GUIDGenerator::CreateGUIDFromRand(MDGUID*)
FUNC 178cc 28 0 GUIDGenerator::InitOnceImpl()
FUNC 178f4 2c 0 my_strlen
FUNC 17920 64 0 my_strcmp
FUNC 17984 6c 0 my_strncmp
FUNC 179f0 68 0 my_strtoui
FUNC 17a58 5c 0 my_uint_len
FUNC 17ab4 48 0 my_uitos
FUNC 17afc 20 0 my_strchr
FUNC 17b1c 44 0 my_strrchr
FUNC 17b60 34 0 my_memchr
FUNC 17b94 68 0 my_read_hex_ptr
FUNC 17bfc 58 0 my_read_decimal_ptr
FUNC 17c54 28 0 my_memset
FUNC 17c7c 60 0 <name omitted>
FUNC 17cdc 98 0 my_strlcat
FUNC 17d74 38 0 my_isspace
FUNC 17dac 10 0 google_breakpad::MemoryMappedFile::MemoryMappedFile()
FUNC 17dbc 28 0 google_breakpad::MemoryMappedFile::MemoryMappedFile(char const*, unsigned int)
FUNC 17de4 214 0 google_breakpad::MemoryMappedFile::Map(char const*, unsigned int)
FUNC 17ff8 5c 0 google_breakpad::MemoryMappedFile::~MemoryMappedFile()
FUNC 18054 58 0 google_breakpad::MemoryMappedFile::Unmap()
FUNC 180ac 64 0 google_breakpad::SafeReadLink(char const*, char*, unsigned int)
FUNC 18110 3c 0 google_breakpad::CrashGenerationClient::TryCreate(int)
FUNC 1814c 4 0 google_breakpad::CrashGenerationClient::~CrashGenerationClient()
FUNC 18150 4 0 google_breakpad::(anonymous namespace)::CrashGenerationClientImpl::~CrashGenerationClientImpl()
FUNC 18154 208 0 google_breakpad::(anonymous namespace)::CrashGenerationClientImpl::RequestDump(void const*, unsigned int)
FUNC 1835c 8 0 google_breakpad::ThreadInfo::GetInstructionPointer() const
FUNC 18364 94 0 google_breakpad::ThreadInfo::FillCPUContext(MDRawContextARM*) const
FUNC 183f8 1c 0 google_breakpad::ThreadInfo::GetGeneralPurposeRegisters(void**, unsigned int*)
FUNC 18414 1c 0 google_breakpad::ThreadInfo::GetFloatingPointRegisters(void**, unsigned int*)
FUNC 18430 8 0 google_breakpad::UContextReader::GetStackPointer(ucontext const*)
FUNC 18438 8 0 google_breakpad::UContextReader::GetInstructionPointer(ucontext const*)
FUNC 18440 cc 0 google_breakpad::UContextReader::FillCPUContext(MDRawContextARM*, ucontext const*)
FUNC 1850c 134 0 ConvertUTF32toUTF16
FUNC 18640 c8 0 ConvertUTF16toUTF32
FUNC 18708 18c 0 ConvertUTF16toUTF8
FUNC 18894 184 0 isLegalUTF8Sequence
FUNC 18a18 2e4 0 ConvertUTF8toUTF16
FUNC 18cfc 154 0 ConvertUTF32toUTF8
FUNC 18e50 298 0 ConvertUTF8toUTF32
FUNC 190e8 4 0 <name omitted>
FUNC 190ec 22 0 __cxxabiv1::__class_type_info::~__class_type_info()
FUNC 19110 9c 0 __cxxabiv1::__class_type_info::can_catch(__cxxabiv1::__shim_type_info const*, void*&) const
FUNC 191ac 30 0 __cxxabiv1::__class_type_info::walk_to(__cxxabiv1::__class_type_info const*, void*&, __cxxabiv1::__UpcastInfo&) const
FUNC 191dc 30 0 __cxxabiv1::__class_type_info::self_class_type_match(__cxxabiv1::__class_type_info const*, void*&, __cxxabiv1::__UpcastInfo&) const
FUNC 1920c 44 0 __cxxabiv1::__UpcastInfo::__UpcastInfo(__cxxabiv1::__class_type_info const*)
FUNC 19250 4 0 __cxxabiv1::__class_type_info::code() const
FUNC 19254 60 0 (anonymous namespace)::CxaThreadKey::~CxaThreadKey()
FUNC 192b4 4 0 __cxxabiv1::__shim_type_info::~__shim_type_info()
FUNC 192b8 2 0 __cxxabiv1::__shim_type_info::~__shim_type_info()
FUNC 192bc 2c 0 __cxa_pure_virtual
FUNC 192e8 30 0 __cxa_deleted_virtual
FUNC 19318 138 0 __cxa_get_globals
FUNC 19450 18 0 __cxa_get_globals_fast
FUNC 19468 5c 0 __cxa_allocate_exception
FUNC 194c4 5c 0 __cxa_free_exception
FUNC 19520 70 0 __cxa_begin_catch
FUNC 19590 98 0 __cxa_end_catch
FUNC 19634 30 0 __cxa_throw
FUNC 19664 8 0 (anonymous namespace)::defaultExceptionCleanupFunc(_Unwind_Reason_Code, _Unwind_Control_Block*)
FUNC 1966c 2c 0 (anonymous namespace)::throwException(__cxxabiv1::__cxa_exception*)
FUNC 19698 7c 0 __cxa_rethrow
FUNC 19714 20 0 (anonymous namespace)::isOurCxxException(unsigned long long)
FUNC 19734 6 0 __cxa_get_exception_ptr
FUNC 1973a 1c 0 __cxa_uncaught_exception
FUNC 19756 2a 0 __cxa_decrement_exception_refcount
FUNC 19780 20 0 __cxa_increment_exception_refcount
FUNC 197a0 2 0 __cxa_rethrow_primary_exception
FUNC 197a2 4 0 __cxa_current_primary_exception
FUNC 197a8 38 0 (anonymous namespace)::CxaThreadKey::freeObject(void*)
FUNC 197e0 a 0 operator delete(void*)
FUNC 197ea 4 0 operator delete[](void*)
FUNC 197ee a 0 operator delete(void*, std::nothrow_t const&)
FUNC 197f8 4 0 operator delete[](void*, std::nothrow_t const&)
FUNC 197fc 9a 0 __dynamic_cast
FUNC 19898 c8 0 (anonymous namespace)::walk_object(void const*, __cxxabiv1::__class_type_info const*, void const*, __cxxabiv1::__class_type_info const*)
FUNC 19960 d0 0 (anonymous namespace)::base_to_derived_cast(void const*, __cxxabiv1::__class_type_info const*, (anonymous namespace)::cast_context*)
FUNC 19a30 80 0 __gabixx::__fatal_error(char const*)
FUNC 19ab0 c 0 __cxxabiv1::call_terminate(_Unwind_Control_Block*)
FUNC 19abc 2c4 0 __cxxabiv1::scanEHTable(__cxxabiv1::ScanResultInternal&, int, bool, _Unwind_Control_Block*, _Unwind_Context*)
FUNC 19d80 1c 0 __cxxabiv1::getTypePtr(unsigned long long, unsigned char const*, unsigned char, _Unwind_Control_Block*)
FUNC 19d9c 46 0 __cxxabiv1::canExceptionSpecCatch(long long, unsigned char const*, unsigned char, std::type_info const*, void*, _Unwind_Control_Block*)
FUNC 19de2 c 0 __cxxabiv1::decodeRelocTarget2(unsigned int)
FUNC 19dee 62 0 __cxxabiv1::setRegisters(_Unwind_Control_Block*, _Unwind_Context*, __cxxabiv1::ScanResultInternal const&)
FUNC 19e50 14 0 __cxxabiv1::continueUnwinding(_Unwind_Control_Block*, _Unwind_Context*)
FUNC 19e64 2e 0 __cxxabiv1::saveDataToBarrierCache(_Unwind_Control_Block*, _Unwind_Context*, __cxxabiv1::ScanResultInternal const&)
FUNC 19e92 12 0 __cxxabiv1::loadDataFromBarrierCache(_Unwind_Control_Block*, __cxxabiv1::ScanResultInternal&)
FUNC 19ea4 4 0 <name omitted>
FUNC 19ea8 6c 0 __cxxabiv1::saveUnexpectedDataToBarrierCache(_Unwind_Control_Block*, _Unwind_Context*, __cxxabiv1::ScanResultInternal const&)
FUNC 19f14 18 0 <name omitted>
FUNC 19f2c 4 0 <name omitted>
FUNC 19f30 10 0 std::bad_alloc::~bad_alloc()
FUNC 19f40 14 0 std::bad_alloc::what() const
FUNC 19f54 18 0 std::bad_array_new_length::bad_array_new_length()
FUNC 19f6c 10 0 std::bad_array_new_length::~bad_array_new_length()
FUNC 19f7c 1c 0 std::bad_array_new_length::what() const
FUNC 19f98 20 0 std::set_new_handler(void (*)())
FUNC 19fb8 20 0 <name omitted>
FUNC 19fd8 70 0 operator new(unsigned int)
FUNC 1a048 1e 0 operator new(unsigned int, std::nothrow_t const&)
FUNC 1a066 e 0 operator new[](unsigned int)
FUNC 1a074 4 0 operator new[](unsigned int, std::nothrow_t const&)
FUNC 1a078 78 0 __cxa_guard_acquire
FUNC 1a0f0 3c 0 __cxa_guard_release
FUNC 1a12c 3c 0 __cxa_guard_abort
FUNC 1a168 190 0 __gxx_personality_v0
FUNC 1a2f8 4 0 <name omitted>
FUNC 1a2fc 22 0 __cxxabiv1::__pointer_type_info::~__pointer_type_info()
FUNC 1a320 54 0 __cxxabiv1::__pointer_type_info::do_can_catch_ptr(__cxxabiv1::__pbase_type_info const*, void*&, unsigned int, bool&) const
FUNC 1a374 4 0 <name omitted>
FUNC 1a378 22 0 __cxxabiv1::__si_class_type_info::~__si_class_type_info()
FUNC 1a39a 36 0 __cxxabiv1::__si_class_type_info::walk_to(__cxxabiv1::__class_type_info const*, void*&, __cxxabiv1::__UpcastInfo&) const
FUNC 1a3d0 4 0 __cxxabiv1::__si_class_type_info::code() const
FUNC 1a3d4 8 0 __gabixx::__default_unexpected()
FUNC 1a3dc 24 0 std::terminate()
FUNC 1a400 14 0 __gabixx::__default_terminate()
FUNC 1a414 24 0 __gabixx::__terminate(void (*)())
FUNC 1a438 20 0 std::get_terminate()
FUNC 1a458 2c 0 std::set_terminate(void (*)())
FUNC 1a484 20 0 <name omitted>
FUNC 1a4a4 2c 0 std::set_unexpected(void (*)())
FUNC 1a4d0 2c 0 std::unexpected()
FUNC 1a4fc 2 0 std::type_info::~type_info()
FUNC 1a4fe 4 0 std::type_info::~type_info()
FUNC 1a502 18 0 <name omitted>
FUNC 1a51a 14 0 std::type_info::operator!=(std::type_info const&) const
FUNC 1a52e 10 0 std::type_info::before(std::type_info const&) const
FUNC 1a540 18 0 std::bad_cast::bad_cast()
FUNC 1a558 4 0 <name omitted>
FUNC 1a55c 10 0 std::bad_cast::~bad_cast()
FUNC 1a56c 14 0 std::bad_cast::what() const
FUNC 1a580 18 0 std::bad_typeid::bad_typeid()
FUNC 1a598 4 0 <name omitted>
FUNC 1a59c 10 0 std::bad_typeid::~bad_typeid()
FUNC 1a5ac 14 0 std::bad_typeid::what() const
FUNC 1a5c0 4 0 <name omitted>
FUNC 1a5c4 22 0 __cxxabiv1::__vmi_class_type_info::~__vmi_class_type_info()
FUNC 1a5e8 1f4 0 __cxxabiv1::__vmi_class_type_info::walk_to(__cxxabiv1::__class_type_info const*, void*&, __cxxabiv1::__UpcastInfo&) const
FUNC 1a7dc 4 0 __cxxabiv1::__vmi_class_type_info::code() const
FUNC 1a7e0 e0 0 std::__stl_throw_runtime_error(char const*)
FUNC 1a8c0 e0 0 std::__stl_throw_range_error(char const*)
FUNC 1a9a0 e0 0 std::__stl_throw_out_of_range(char const*)
FUNC 1aa80 e0 0 std::__stl_throw_length_error(char const*)
FUNC 1ab60 e0 0 std::__stl_throw_invalid_argument(char const*)
FUNC 1ac40 e0 0 std::__stl_throw_overflow_error(char const*)
FUNC 1ad20 78 0 std::__Named_exception::__Named_exception(std::string const&)
FUNC 1ad98 7c 0 std::__Named_exception::__Named_exception(std::__Named_exception const&)
FUNC 1ae14 6e 0 std::__Named_exception::operator=(std::__Named_exception const&)
FUNC 1ae84 2c 0 <name omitted>
FUNC 1aeb0 30 0 std::__Named_exception::~__Named_exception()
FUNC 1aee0 6 0 std::__Named_exception::what() const
FUNC 1aee8 30 0 std::logic_error::~logic_error()
FUNC 1af18 30 0 std::runtime_error::~runtime_error()
FUNC 1af48 30 0 std::domain_error::~domain_error()
FUNC 1af78 30 0 std::invalid_argument::~invalid_argument()
FUNC 1afa8 30 0 std::length_error::~length_error()
FUNC 1afd8 30 0 std::out_of_range::~out_of_range()
FUNC 1b008 30 0 std::range_error::~range_error()
FUNC 1b038 30 0 std::overflow_error::~overflow_error()
FUNC 1b068 30 0 std::underflow_error::~underflow_error()
FUNC 1b098 e 0 std::_STLP_mutex::~_STLP_mutex()
FUNC 1b0a8 68 0 std::__malloc_alloc::allocate(unsigned int)
FUNC 1b110 34 0 std::__malloc_alloc::set_malloc_handler(void (*)())
FUNC 1b144 c8 0 std::__node_alloc_impl::_M_allocate(unsigned int&)
FUNC 1b20c 6c 0 std::__node_alloc_impl::_S_refill(unsigned int)
FUNC 1b278 44 0 <name omitted>
FUNC 1b2bc 180 0 std::__node_alloc_impl::_S_chunk_alloc(unsigned int, int&)
FUNC 1b43c 4 0 std::__node_alloc::_M_allocate(unsigned int&)
FUNC 1b440 44 0 std::__node_alloc::_M_deallocate(void*, unsigned int)
FUNC 1b484 5c 0 <name omitted>
FUNC 1b4e0 12c 0 std::priv::_Pthread_alloc_impl::_S_chunk_alloc(unsigned int, unsigned int&, std::priv::_Pthread_alloc_per_thread_state*)
FUNC 1b60c 2c 0 std::priv::_Pthread_alloc_impl::_S_destructor(void*)
FUNC 1b638 50 0 <name omitted>
FUNC 1b688 12c 0 std::priv::_Pthread_alloc_impl::_S_get_per_thread_state()
FUNC 1b7b4 88 0 std::priv::_Pthread_alloc_impl::allocate(unsigned int&)
FUNC 1b83c 34 0 <name omitted>
FUNC 1b870 b2 0 std::priv::_Pthread_alloc_impl::allocate(unsigned int&, std::priv::_Pthread_alloc_per_thread_state*)
FUNC 1b922 52 0 <name omitted>
FUNC 1b974 7e 0 <name omitted>
FUNC 1b9f2 4 0 std::priv::_Pthread_alloc::allocate(unsigned int&)
FUNC 1b9f6 34 0 std::priv::_Pthread_alloc::deallocate(void*, unsigned int)
FUNC 1ba2a 4 0 std::priv::_Pthread_alloc::allocate(unsigned int&, std::priv::_Pthread_alloc_per_thread_state*)
FUNC 1ba2e 52 0 std::priv::_Pthread_alloc::deallocate(void*, unsigned int, std::priv::_Pthread_alloc_per_thread_state*)
FUNC 1ba80 7e 0 std::priv::_Pthread_alloc::reallocate(void*, unsigned int, unsigned int&)
FUNC 1bafe 4 0 std::priv::_Pthread_alloc::_S_get_per_thread_state()
FUNC 1bb14 6c 0 <name omitted>
FUNC 1bb80 4a 0 __cxa_begin_cleanup
FUNC 1bbca 56 0 helper_end_cleanup
FUNC 1bc20 168 0 __cxa_call_unexpected
FUNC 1bd88 2e 0 <name omitted>
FUNC 1bdb6 42 0 <name omitted>
FUNC 1bdf8 118 0 __cxxabiv1::readEncodedPointer(unsigned char const**, unsigned char)
FUNC 1bf10 10 0 std::exception::exception()
FUNC 1bf20 2 0 std::exception::~exception()
FUNC 1bf22 4 0 std::exception::~exception()
FUNC 1bf28 14 0 std::exception::what() const
FUNC 1bf3c 10 0 std::bad_exception::bad_exception()
FUNC 1bf4c 4 0 std::bad_exception::~bad_exception()
FUNC 1bf50 18 0 std::bad_exception::what() const
FUNC 1bf68 12 0 std::uncaught_exception()
FUNC 1bf7c 4 0 <name omitted>
FUNC 1bf80 22 0 __cxxabiv1::__function_type_info::~__function_type_info()
FUNC 1bfa2 4 0 __cxxabiv1::__function_type_info::can_catch(__cxxabiv1::__shim_type_info const*, void*&) const
FUNC 1bfa8 4 0 <name omitted>
FUNC 1bfac 22 0 __cxxabiv1::__fundamental_type_info::~__fundamental_type_info()
FUNC 1bfce 4 0 __cxxabiv1::__fundamental_type_info::can_catch(__cxxabiv1::__shim_type_info const*, void*&) const
FUNC 1bfd4 4 0 __cxxabiv1::__pbase_type_info::~__pbase_type_info()
FUNC 1bfd8 2 0 __cxxabiv1::__pbase_type_info::~__pbase_type_info()
FUNC 1bfdc 2c 0 __cxxabiv1::__pbase_type_info::can_catch(__cxxabiv1::__shim_type_info const*, void*&) const
FUNC 1c008 cc 0 __cxxabiv1::__pbase_type_info::can_catch_typeinfo_wrapper(__cxxabiv1::__shim_type_info const*, void*&, unsigned int) const
FUNC 1c0d4 74 0 __cxxabiv1::__pbase_type_info::can_catch_ptr(__cxxabiv1::__pbase_type_info const*, void*&, unsigned int) const
FUNC 1c148 28 0 __cxa_bad_cast
FUNC 1c170 28 0 __cxa_bad_typeid
FUNC 1c2ac 3c 0 __gnu_ldivmod_helper
FUNC 1c2e8 3c 0 __gnu_uldivmod_helper
FUNC 1c324 18 0 selfrel_offset31
FUNC 1c33c a4 0 search_EIT_table
FUNC 1c3e0 50 0 __gnu_unwind_get_pr_addr
FUNC 1c430 100 0 get_eit_entry
FUNC 1c530 6c 0 restore_non_core_regs
FUNC 1c59c 14 0 _Unwind_decode_typeinfo_ptr
FUNC 1c5b0 8 0 __gnu_unwind_24bit
FUNC 1c5b8 4 0 _Unwind_DebugHook
FUNC 1c5bc 64 0 unwind_phase2
FUNC 1c620 128 0 unwind_phase2_forced
FUNC 1c748 8 0 _Unwind_GetCFA
FUNC 1c750 a4 0 __gnu_Unwind_RaiseException
FUNC 1c7f4 1c 0 __gnu_Unwind_ForcedUnwind
FUNC 1c810 74 0 __gnu_Unwind_Resume
FUNC 1c884 20 0 __gnu_Unwind_Resume_or_Rethrow
FUNC 1c8a4 4 0 _Unwind_Complete
FUNC 1c8a8 18 0 _Unwind_DeleteException
FUNC 1c8c0 5c 0 _Unwind_VRS_Get
FUNC 1c91c 28 0 _Unwind_GetGR
FUNC 1c944 5c 0 _Unwind_VRS_Set
FUNC 1c9a0 2c 0 _Unwind_SetGR
FUNC 1c9cc c8 0 __gnu_Unwind_Backtrace
FUNC 1ca94 3ec 0 __gnu_unwind_pr_common
FUNC 1ce80 8 0 __aeabi_unwind_cpp_pr0
FUNC 1ce88 8 0 __aeabi_unwind_cpp_pr1
FUNC 1ce90 8 0 __aeabi_unwind_cpp_pr2
FUNC 1ce98 360 0 _Unwind_VRS_Pop
FUNC 1d3a0 60 0 next_unwind_byte
FUNC 1d400 28 0 _Unwind_GetGR
FUNC 1d428 4 0 unwind_UCB_from_context
FUNC 1d42c 398 0 __gnu_unwind_execute
FUNC 1d7c4 40 0 __gnu_unwind_frame
FUNC 1d804 10 0 _Unwind_GetRegionStart
FUNC 1d814 1c 0 _Unwind_GetLanguageSpecificData
FUNC 1d830 8 0 _Unwind_GetDataRelBase
FUNC 1d838 8 0 _Unwind_GetTextRelBase
FUNC 1d840 17c 0 __divdi3
FUNC 1d9bc 10c 0 __udivdi3
PUBLIC 9c10 0 __on_dlclose
PUBLIC 9c21 0 _GLOBAL__sub_I_cxxabi.cc
PUBLIC 9cb5 0 _GLOBAL__sub_I_allocators.cpp
PUBLIC 9ce4 0 __atexit_handler_wrapper
PUBLIC 9cf0 0 atexit
PUBLIC 9d11 0 JNI_OnLoad
PUBLIC 9da5 0 DumpCallback(google_breakpad::MinidumpDescriptor const&, void*, bool)
PUBLIC 9de9 0 Java_cn_onlinecache_breakpad_NativeBreakpad_nativeInit
PUBLIC 9f29 0 std::basic_string<char, std::char_traits<char>, std::allocator<char> >::basic_string(char const*, std::allocator<char> const&)
PUBLIC 9f69 0 Java_cn_onlinecache_breakpad_NativeBreakpad_nativeTestCrash
PUBLIC 9fa1 0 std::basic_string<char, std::char_traits<char>, std::allocator<char> >::basic_string(std::string const&)
PUBLIC 9fe1 0 std::priv::_String_base<char, std::allocator<char> >::_M_allocate_block(unsigned int)
PUBLIC a041 0 std::__node_alloc::allocate(unsigned int&)
PUBLIC a051 0 std::priv::_String_base<char, std::allocator<char> >::_M_deallocate_block()
PUBLIC a070 0 google_breakpad::ExceptionHandler::ExceptionHandler(google_breakpad::MinidumpDescriptor const&, bool (*)(void*), bool (*)(google_breakpad::MinidumpDescriptor const&, void*, bool), void*, bool, int)
PUBLIC a3d8 0 google_breakpad::ExceptionHandler::InstallHandlersLocked()
PUBLIC a5c8 0 google_breakpad::ExceptionHandler::~ExceptionHandler()
PUBLIC aa48 0 google_breakpad::ExceptionHandler::RestoreHandlersLocked()
PUBLIC ab5c 0 google_breakpad::ExceptionHandler::SignalHandler(int, siginfo*, void*)
PUBLIC af4c 0 google_breakpad::ExceptionHandler::HandleSignal(int, siginfo*, void*)
PUBLIC b080 0 google_breakpad::ExceptionHandler::ThreadEntry(void*)
PUBLIC b10c 0 google_breakpad::ExceptionHandler::WaitForContinueSignal()
PUBLIC b1ec 0 google_breakpad::ExceptionHandler::DoDump(int, void const*, unsigned int)
PUBLIC b2f4 0 google_breakpad::ExceptionHandler::GenerateDump(google_breakpad::ExceptionHandler::CrashContext*)
PUBLIC b7a4 0 google_breakpad::ExceptionHandler::SimulateSignalDelivery(int)
PUBLIC b820 0 google_breakpad::ExceptionHandler::SendContinueSignalToChild()
PUBLIC b8e0 0 google_breakpad::ExceptionHandler::WriteMinidump(std::string const&, bool (*)(google_breakpad::MinidumpDescriptor const&, void*, bool), void*)
PUBLIC baa8 0 google_breakpad::ExceptionHandler::WriteMinidump()
PUBLIC bc24 0 google_breakpad::ExceptionHandler::AddMappingInfo(std::string const&, unsigned char const*, unsigned int, unsigned int, unsigned int)
PUBLIC bd00 0 google_breakpad::ExceptionHandler::RegisterAppMemory(void*, unsigned int)
PUBLIC bda4 0 google_breakpad::ExceptionHandler::UnregisterAppMemory(void*)
PUBLIC bdec 0 google_breakpad::ExceptionHandler::WriteMinidumpForChild(int, int, std::string const&, bool (*)(google_breakpad::MinidumpDescriptor const&, void*, bool), void*)
PUBLIC bfc4 0 google_breakpad::SetFirstChanceExceptionHandler(bool (*)(int, void*, void*))
PUBLIC bfd4 0 std::vector<google_breakpad::ExceptionHandler*, std::allocator<google_breakpad::ExceptionHandler*> >::_M_insert_overflow(google_breakpad::ExceptionHandler**, google_breakpad::ExceptionHandler* const&, std::__true_type const&, unsigned int, bool)
PUBLIC c19c 0 google_breakpad::MinidumpDescriptor::MinidumpDescriptor(google_breakpad::MinidumpDescriptor const&)
PUBLIC c2dc 0 google_breakpad::MinidumpDescriptor::operator=(google_breakpad::MinidumpDescriptor const&)
PUBLIC c420 0 google_breakpad::MinidumpDescriptor::UpdatePath()
PUBLIC c7f0 0 std::string::_M_append(char const*, char const*)
PUBLIC ca00 0 std::string& std::string::_M_appendT<char const*>(char const*, char const*, std::forward_iterator_tag const&)
PUBLIC cbc8 0 logger::initializeCrashLogWriter()
PUBLIC cc30 0 logger::writeToCrashLog(char const*)
PUBLIC cc78 0 logger::write(char const*, unsigned int)
PUBLIC cc90 0 google_breakpad::WriteMicrodump(int, void const*, unsigned int, std::list<google_breakpad::MappingEntry, std::allocator<google_breakpad::MappingEntry> > const&, bool, unsigned int, bool, google_breakpad::MicrodumpExtraInfo const&)
PUBLIC dedc 0 google_breakpad::PageAllocator::Alloc(unsigned int)
PUBLIC e014 0 (anonymous namespace)::MicrodumpWriter::DumpModule(google_breakpad::MappingInfo const&, bool, unsigned int, unsigned char const*)
PUBLIC e568 0 void std::vector<unsigned char, google_breakpad::PageStdAllocator<unsigned char> >::_M_range_insert<unsigned char const*>(unsigned char*, unsigned char const*, unsigned char const*, std::forward_iterator_tag const&)
PUBLIC e74c 0 google_breakpad::LinuxDumper::LinuxDumper(int, char const*)
PUBLIC e890 0 std::vector<unsigned int, google_breakpad::PageStdAllocator<unsigned int> >::resize(unsigned int, unsigned int const&)
PUBLIC ea34 0 google_breakpad::LinuxDumper::~LinuxDumper()
PUBLIC eaa8 0 google_breakpad::LinuxDumper::~LinuxDumper()
PUBLIC eaac 0 google_breakpad::LinuxDumper::Init()
PUBLIC eaf8 0 google_breakpad::LinuxDumper::ReadAuxv()
PUBLIC ec44 0 google_breakpad::LinuxDumper::LateInit()
PUBLIC ec58 0 google_breakpad::LinuxDumper::LatePostprocessMappings()
PUBLIC ee6c 0 google_breakpad::LinuxDumper::ElfFileIdentifierForMapping(google_breakpad::MappingInfo const&, bool, unsigned int, google_breakpad::wasteful_vector<unsigned char>&)
PUBLIC f078 0 google_breakpad::LinuxDumper::GetMappingAbsolutePath(google_breakpad::MappingInfo const&, char*) const
PUBLIC f0cc 0 google_breakpad::LinuxDumper::HandleDeletedFileInMapping(char*) const
PUBLIC f2a0 0 google_breakpad::LinuxDumper::SetCrashInfoFromSigInfo(siginfo const&)
PUBLIC f2bc 0 google_breakpad::LinuxDumper::GetCrashSignalString() const
PUBLIC f2ec 0 google_breakpad::LinuxDumper::GetMappingEffectiveNameAndPath(google_breakpad::MappingInfo const&, char*, unsigned int, char*, unsigned int)
PUBLIC f544 0 google_breakpad::LinuxDumper::EnumerateMappings()
PUBLIC fae4 0 google_breakpad::LinuxDumper::GetLoadedElfHeader(unsigned int, elf32_hdr*)
PUBLIC fb30 0 google_breakpad::LinuxDumper::ParseLoadedElfProgramHeaders(elf32_hdr*, unsigned int, unsigned int*, unsigned int*, unsigned int*)
PUBLIC fc54 0 google_breakpad::LinuxDumper::HasAndroidPackedRelocations(unsigned int, unsigned int, unsigned int)
PUBLIC fd08 0 google_breakpad::LinuxDumper::GetEffectiveLoadBias(elf32_hdr*, unsigned int)
PUBLIC fe84 0 google_breakpad::LinuxDumper::GetStackInfo(void const**, unsigned int*, unsigned int)
PUBLIC ff24 0 google_breakpad::LinuxDumper::FindMapping(void const*) const
PUBLIC ff80 0 google_breakpad::LinuxDumper::SanitizeStackCopy(unsigned char*, unsigned int, unsigned int, unsigned int)
PUBLIC 101dc 0 google_breakpad::LinuxDumper::FindMappingNoBias(unsigned int) const
PUBLIC 10234 0 google_breakpad::LinuxDumper::StackHasPointerToMapping(unsigned char const*, unsigned int, unsigned int, google_breakpad::MappingInfo const&)
PUBLIC 1028c 0 std::vector<unsigned int, google_breakpad::PageStdAllocator<unsigned int> >::_M_fill_insert_aux(unsigned int*, unsigned int, unsigned int const&, std::__false_type const&)
PUBLIC 10414 0 google_breakpad::LinuxPtraceDumper::LinuxPtraceDumper(int)
PUBLIC 1044c 0 google_breakpad::LinuxPtraceDumper::BuildProcPath(char*, int, char const*) const
PUBLIC 10520 0 google_breakpad::LinuxPtraceDumper::CopyFromProcess(void*, int, void const*, unsigned int)
PUBLIC 10604 0 google_breakpad::LinuxPtraceDumper::ReadRegisterSet(google_breakpad::ThreadInfo*, int)
PUBLIC 10708 0 google_breakpad::LinuxPtraceDumper::ReadRegisters(google_breakpad::ThreadInfo*, int)
PUBLIC 107b4 0 google_breakpad::LinuxPtraceDumper::GetThreadInfoByIndex(unsigned int, google_breakpad::ThreadInfo*)
PUBLIC 10b80 0 google_breakpad::LinuxPtraceDumper::IsPostMortem() const
PUBLIC 10b88 0 google_breakpad::LinuxPtraceDumper::ThreadsSuspend()
PUBLIC 10d74 0 std::vector<int, google_breakpad::PageStdAllocator<int> >::resize(unsigned int, int const&)
PUBLIC 10f18 0 google_breakpad::LinuxPtraceDumper::ThreadsResume()
PUBLIC 10fd0 0 google_breakpad::LinuxPtraceDumper::EnumerateThreads()
PUBLIC 112b4 0 google_breakpad::LinuxPtraceDumper::~LinuxPtraceDumper()
PUBLIC 112c8 0 std::vector<int, google_breakpad::PageStdAllocator<int> >::_M_fill_insert_aux(int*, unsigned int, int const&, std::__false_type const&)
PUBLIC 11450 0 google_breakpad::WriteMinidump(char const*, int, void const*, unsigned int, bool, unsigned int, bool)
PUBLIC 11530 0 (anonymous namespace)::WriteMinidumpImpl(char const*, int, long, int, void const*, unsigned int, std::list<google_breakpad::MappingEntry, std::allocator<google_breakpad::MappingEntry> > const&, std::list<google_breakpad::AppMemory, std::allocator<google_breakpad::AppMemory> > const&, bool, unsigned int, bool)
PUBLIC 116c0 0 google_breakpad::WriteMinidump(int, int, void const*, unsigned int, bool, unsigned int, bool)
PUBLIC 117a4 0 google_breakpad::WriteMinidump(char const*, int, int)
PUBLIC 11940 0 (anonymous namespace)::MinidumpWriter::Init()
PUBLIC 11ad4 0 (anonymous namespace)::MinidumpWriter::Dump()
PUBLIC 13d18 0 google_breakpad::WriteMinidump(char const*, int, void const*, unsigned int, std::list<google_breakpad::MappingEntry, std::allocator<google_breakpad::MappingEntry> > const&, std::list<google_breakpad::AppMemory, std::allocator<google_breakpad::AppMemory> > const&, bool, unsigned int, bool)
PUBLIC 13d68 0 google_breakpad::WriteMinidump(int, int, void const*, unsigned int, std::list<google_breakpad::MappingEntry, std::allocator<google_breakpad::MappingEntry> > const&, std::list<google_breakpad::AppMemory, std::allocator<google_breakpad::AppMemory> > const&, bool, unsigned int, bool)
PUBLIC 13dbc 0 google_breakpad::WriteMinidump(char const*, long, int, void const*, unsigned int, std::list<google_breakpad::MappingEntry, std::allocator<google_breakpad::MappingEntry> > const&, std::list<google_breakpad::AppMemory, std::allocator<google_breakpad::AppMemory> > const&, bool, unsigned int, bool)
PUBLIC 13e14 0 google_breakpad::WriteMinidump(int, long, int, void const*, unsigned int, std::list<google_breakpad::MappingEntry, std::allocator<google_breakpad::MappingEntry> > const&, std::list<google_breakpad::AppMemory, std::allocator<google_breakpad::AppMemory> > const&, bool, unsigned int, bool)
PUBLIC 13e70 0 google_breakpad::WriteMinidump(char const*, std::list<google_breakpad::MappingEntry, std::allocator<google_breakpad::MappingEntry> > const&, std::list<google_breakpad::AppMemory, std::allocator<google_breakpad::AppMemory> > const&, google_breakpad::LinuxDumper*)
PUBLIC 13f84 0 (anonymous namespace)::MinidumpWriter::WriteFile(MDLocationDescriptor*, char const*)
PUBLIC 141ac 0 (anonymous namespace)::MinidumpWriter::FillThreadStack(MDRawThread*, unsigned int, unsigned int, int, unsigned char**)
PUBLIC 143fc 0 std::vector<MDMemoryDescriptor, google_breakpad::PageStdAllocator<MDMemoryDescriptor> >::_M_insert_overflow_aux(MDMemoryDescriptor*, MDMemoryDescriptor const&, std::__false_type const&, unsigned int, bool)
PUBLIC 145b8 0 (anonymous namespace)::MinidumpWriter::FillRawModule(google_breakpad::MappingInfo const&, bool, unsigned int, MDRawModule*, unsigned char const*)
PUBLIC 14788 0 google_breakpad::CpuSet::ParseSysFile(int)
PUBLIC 14928 0 google_breakpad::ProcCpuInfoReader::GetNextField(char const**)
PUBLIC 14b00 0 std::vector<char, google_breakpad::PageStdAllocator<char> >::resize(unsigned int, char const&)
PUBLIC 14c68 0 std::vector<char, google_breakpad::PageStdAllocator<char> >::_M_fill_insert_aux(char*, unsigned int, char const&, std::__false_type const&)
PUBLIC 14e04 0 google_breakpad::MinidumpFileWriter::MinidumpFileWriter()
PUBLIC 14e24 0 google_breakpad::MinidumpFileWriter::~MinidumpFileWriter()
PUBLIC 14eb4 0 google_breakpad::MinidumpFileWriter::Close()
PUBLIC 14f5c 0 google_breakpad::MinidumpFileWriter::Open(char const*)
PUBLIC 14fbc 0 google_breakpad::MinidumpFileWriter::SetFile(int)
PUBLIC 15070 0 google_breakpad::MinidumpFileWriter::CopyStringToMDString(wchar_t const*, unsigned int, google_breakpad::TypedMDRVA<MDString>*)
PUBLIC 151dc 0 google_breakpad::MinidumpFileWriter::CopyStringToMDString(char const*, unsigned int, google_breakpad::TypedMDRVA<MDString>*)
PUBLIC 1533c 0 google_breakpad::MinidumpFileWriter::WriteString(wchar_t const*, unsigned int, MDLocationDescriptor*)
PUBLIC 15340 0 bool google_breakpad::MinidumpFileWriter::WriteStringCore<wchar_t>(wchar_t const*, unsigned int, MDLocationDescriptor*)
PUBLIC 1560c 0 google_breakpad::MinidumpFileWriter::WriteString(char const*, unsigned int, MDLocationDescriptor*)
PUBLIC 15610 0 bool google_breakpad::MinidumpFileWriter::WriteStringCore<char>(char const*, unsigned int, MDLocationDescriptor*)
PUBLIC 158dc 0 google_breakpad::MinidumpFileWriter::WriteMemory(void const*, unsigned int, MDMemoryDescriptor*)
PUBLIC 15a5c 0 google_breakpad::UntypedMDRVA::Allocate(unsigned int)
PUBLIC 15b1c 0 google_breakpad::MinidumpFileWriter::Allocate(unsigned int)
PUBLIC 15bcc 0 google_breakpad::MinidumpFileWriter::Copy(unsigned int, void const*, int)
PUBLIC 15c8c 0 google_breakpad::UntypedMDRVA::Copy(unsigned int, void const*, unsigned int)
PUBLIC 15d4c 0 breakpad_getcontext
PUBLIC 15d88 0 google_breakpad::UTF8ToUTF16(char const*, std::vector<unsigned short, std::allocator<unsigned short> >*)
PUBLIC 15f2c 0 google_breakpad::UTF8ToUTF16Char(char const*, int, unsigned short*)
PUBLIC 15fd8 0 google_breakpad::UTF32ToUTF16(wchar_t const*, std::vector<unsigned short, std::allocator<unsigned short> >*)
PUBLIC 1617c 0 google_breakpad::UTF32ToUTF16Char(wchar_t, unsigned short*)
PUBLIC 161fc 0 google_breakpad::UTF16ToUTF8(std::vector<unsigned short, std::allocator<unsigned short> > const&, bool)
PUBLIC 163b8 0 std::vector<unsigned short, std::allocator<unsigned short> >::_M_fill_insert_aux(unsigned short*, unsigned int, unsigned short const&, std::__false_type const&)
PUBLIC 16540 0 std::vector<unsigned short, std::allocator<unsigned short> >::_M_insert_overflow(unsigned short*, unsigned short const&, std::__true_type const&, unsigned int, bool)
PUBLIC 16700 0 google_breakpad::IsValidElf(void const*)
PUBLIC 16730 0 google_breakpad::ElfClass(void const*)
PUBLIC 16738 0 google_breakpad::FindElfSection(void const*, char const*, unsigned int, void const**, unsigned int*)
PUBLIC 16928 0 google_breakpad::FindElfSegments(void const*, unsigned int, google_breakpad::wasteful_vector<google_breakpad::ElfSegment>*)
PUBLIC 16af8 0 std::vector<google_breakpad::ElfSegment, google_breakpad::PageStdAllocator<google_breakpad::ElfSegment> >::_M_insert_overflow_aux(google_breakpad::ElfSegment*, google_breakpad::ElfSegment const&, std::__false_type const&, unsigned int, bool)
PUBLIC 16c78 0 google_breakpad::FileID::FileID(char const*)
PUBLIC 16d6c 0 google_breakpad::FileID::ElfFileIdentifierFromMappedFile(void const*, google_breakpad::wasteful_vector<unsigned char>&)
PUBLIC 17194 0 google_breakpad::FileID::ElfFileIdentifier(google_breakpad::wasteful_vector<unsigned char>&)
PUBLIC 17214 0 google_breakpad::FileID::ConvertIdentifierToUUIDString(google_breakpad::wasteful_vector<unsigned char> const&)
PUBLIC 17348 0 google_breakpad::FileID::ConvertIdentifierToString(google_breakpad::wasteful_vector<unsigned char> const&)
PUBLIC 173f4 0 std::vector<unsigned char, google_breakpad::PageStdAllocator<unsigned char> >::resize(unsigned int, unsigned char const&)
PUBLIC 1755c 0 std::vector<unsigned char, google_breakpad::PageStdAllocator<unsigned char> >::_M_fill_insert_aux(unsigned char*, unsigned int, unsigned char const&, std::__false_type const&)
PUBLIC 176f8 0 CreateGUID(MDGUID*)
PUBLIC 177a4 0 GUIDToString(MDGUID const*, char*, int)
PUBLIC 17820 0 GUIDGenerator::CreateGUIDFromRand(MDGUID*)
PUBLIC 178cc 0 GUIDGenerator::InitOnceImpl()
PUBLIC 178f4 0 my_strlen
PUBLIC 17920 0 my_strcmp
PUBLIC 17984 0 my_strncmp
PUBLIC 179f0 0 my_strtoui
PUBLIC 17a58 0 my_uint_len
PUBLIC 17ab4 0 my_uitos
PUBLIC 17afc 0 my_strchr
PUBLIC 17b1c 0 my_strrchr
PUBLIC 17b60 0 my_memchr
PUBLIC 17b94 0 my_read_hex_ptr
PUBLIC 17bfc 0 my_read_decimal_ptr
PUBLIC 17c54 0 my_memset
PUBLIC 17c7c 0 my_strlcpy
PUBLIC 17cdc 0 my_strlcat
PUBLIC 17d74 0 my_isspace
PUBLIC 17dac 0 google_breakpad::MemoryMappedFile::MemoryMappedFile()
PUBLIC 17dbc 0 google_breakpad::MemoryMappedFile::MemoryMappedFile(char const*, unsigned int)
PUBLIC 17de4 0 google_breakpad::MemoryMappedFile::Map(char const*, unsigned int)
PUBLIC 17ff8 0 google_breakpad::MemoryMappedFile::~MemoryMappedFile()
PUBLIC 18054 0 google_breakpad::MemoryMappedFile::Unmap()
PUBLIC 180ac 0 google_breakpad::SafeReadLink(char const*, char*, unsigned int)
PUBLIC 18110 0 google_breakpad::CrashGenerationClient::TryCreate(int)
PUBLIC 1814c 0 google_breakpad::CrashGenerationClient::~CrashGenerationClient()
PUBLIC 18150 0 google_breakpad::(anonymous namespace)::CrashGenerationClientImpl::~CrashGenerationClientImpl()
PUBLIC 18154 0 google_breakpad::(anonymous namespace)::CrashGenerationClientImpl::RequestDump(void const*, unsigned int)
PUBLIC 1835c 0 google_breakpad::ThreadInfo::GetInstructionPointer() const
PUBLIC 18364 0 google_breakpad::ThreadInfo::FillCPUContext(MDRawContextARM*) const
PUBLIC 183f8 0 google_breakpad::ThreadInfo::GetGeneralPurposeRegisters(void**, unsigned int*)
PUBLIC 18414 0 google_breakpad::ThreadInfo::GetFloatingPointRegisters(void**, unsigned int*)
PUBLIC 18430 0 google_breakpad::UContextReader::GetStackPointer(ucontext const*)
PUBLIC 18438 0 google_breakpad::UContextReader::GetInstructionPointer(ucontext const*)
PUBLIC 18440 0 google_breakpad::UContextReader::FillCPUContext(MDRawContextARM*, ucontext const*)
PUBLIC 1850c 0 ConvertUTF32toUTF16
PUBLIC 18640 0 ConvertUTF16toUTF32
PUBLIC 18708 0 ConvertUTF16toUTF8
PUBLIC 18894 0 isLegalUTF8Sequence
PUBLIC 18a18 0 ConvertUTF8toUTF16
PUBLIC 18cfc 0 ConvertUTF32toUTF8
PUBLIC 18e50 0 ConvertUTF8toUTF32
PUBLIC 190e9 0 __cxxabiv1::__class_type_info::~__class_type_info()
PUBLIC 190ed 0 __cxxabiv1::__class_type_info::~__class_type_info()
PUBLIC 19111 0 __cxxabiv1::__class_type_info::can_catch(__cxxabiv1::__shim_type_info const*, void*&) const
PUBLIC 191ad 0 __cxxabiv1::__class_type_info::walk_to(__cxxabiv1::__class_type_info const*, void*&, __cxxabiv1::__UpcastInfo&) const
PUBLIC 191dd 0 __cxxabiv1::__class_type_info::self_class_type_match(__cxxabiv1::__class_type_info const*, void*&, __cxxabiv1::__UpcastInfo&) const
PUBLIC 1920d 0 __cxxabiv1::__UpcastInfo::__UpcastInfo(__cxxabiv1::__class_type_info const*)
PUBLIC 19251 0 __cxxabiv1::__class_type_info::code() const
PUBLIC 19255 0 (anonymous namespace)::CxaThreadKey::~CxaThreadKey()
PUBLIC 192b5 0 __cxxabiv1::__shim_type_info::~__shim_type_info()
PUBLIC 192b9 0 __cxxabiv1::__shim_type_info::~__shim_type_info()
PUBLIC 192bd 0 __cxa_pure_virtual
PUBLIC 192e9 0 __cxa_deleted_virtual
PUBLIC 19319 0 __cxa_get_globals
PUBLIC 19451 0 __cxa_get_globals_fast
PUBLIC 19469 0 __cxa_allocate_exception
PUBLIC 194c5 0 __cxa_free_exception
PUBLIC 19521 0 __cxa_begin_catch
PUBLIC 19591 0 __cxa_end_catch
PUBLIC 19629 0 __clang_call_terminate
PUBLIC 19635 0 __cxa_throw
PUBLIC 19665 0 (anonymous namespace)::defaultExceptionCleanupFunc(_Unwind_Reason_Code, _Unwind_Control_Block*)
PUBLIC 1966d 0 (anonymous namespace)::throwException(__cxxabiv1::__cxa_exception*)
PUBLIC 19699 0 __cxa_rethrow
PUBLIC 19715 0 (anonymous namespace)::isOurCxxException(unsigned long long)
PUBLIC 19735 0 __cxa_get_exception_ptr
PUBLIC 1973b 0 __cxa_uncaught_exception
PUBLIC 19757 0 __cxa_decrement_exception_refcount
PUBLIC 19781 0 __cxa_increment_exception_refcount
PUBLIC 197a1 0 __cxa_rethrow_primary_exception
PUBLIC 197a3 0 __cxa_current_primary_exception
PUBLIC 197a9 0 (anonymous namespace)::CxaThreadKey::freeObject(void*)
PUBLIC 197e1 0 operator delete(void*)
PUBLIC 197eb 0 operator delete[](void*)
PUBLIC 197ef 0 operator delete(void*, std::nothrow_t const&)
PUBLIC 197f9 0 operator delete[](void*, std::nothrow_t const&)
PUBLIC 197fd 0 __dynamic_cast
PUBLIC 19899 0 (anonymous namespace)::walk_object(void const*, __cxxabiv1::__class_type_info const*, void const*, __cxxabiv1::__class_type_info const*)
PUBLIC 19961 0 (anonymous namespace)::base_to_derived_cast(void const*, __cxxabiv1::__class_type_info const*, (anonymous namespace)::cast_context*)
PUBLIC 19a31 0 __gabixx::__fatal_error(char const*)
PUBLIC 19ab1 0 __cxxabiv1::call_terminate(_Unwind_Control_Block*)
PUBLIC 19abd 0 __cxxabiv1::scanEHTable(__cxxabiv1::ScanResultInternal&, int, bool, _Unwind_Control_Block*, _Unwind_Context*)
PUBLIC 19d81 0 __cxxabiv1::getTypePtr(unsigned long long, unsigned char const*, unsigned char, _Unwind_Control_Block*)
PUBLIC 19d9d 0 __cxxabiv1::canExceptionSpecCatch(long long, unsigned char const*, unsigned char, std::type_info const*, void*, _Unwind_Control_Block*)
PUBLIC 19de3 0 __cxxabiv1::decodeRelocTarget2(unsigned int)
PUBLIC 19def 0 __cxxabiv1::setRegisters(_Unwind_Control_Block*, _Unwind_Context*, __cxxabiv1::ScanResultInternal const&)
PUBLIC 19e51 0 __cxxabiv1::continueUnwinding(_Unwind_Control_Block*, _Unwind_Context*)
PUBLIC 19e65 0 __cxxabiv1::saveDataToBarrierCache(_Unwind_Control_Block*, _Unwind_Context*, __cxxabiv1::ScanResultInternal const&)
PUBLIC 19e93 0 __cxxabiv1::loadDataFromBarrierCache(_Unwind_Control_Block*, __cxxabiv1::ScanResultInternal&)
PUBLIC 19ea5 0 __cxxabiv1::prepareBeginCleanup(_Unwind_Control_Block*)
PUBLIC 19ea9 0 __cxxabiv1::saveUnexpectedDataToBarrierCache(_Unwind_Control_Block*, _Unwind_Context*, __cxxabiv1::ScanResultInternal const&)
PUBLIC 19f15 0 std::bad_alloc::bad_alloc()
PUBLIC 19f2d 0 std::bad_array_new_length::~bad_array_new_length()
PUBLIC 19f31 0 std::bad_alloc::~bad_alloc()
PUBLIC 19f41 0 std::bad_alloc::what() const
PUBLIC 19f55 0 std::bad_array_new_length::bad_array_new_length()
PUBLIC 19f6d 0 std::bad_array_new_length::~bad_array_new_length()
PUBLIC 19f7d 0 std::bad_array_new_length::what() const
PUBLIC 19f99 0 std::set_new_handler(void (*)())
PUBLIC 19fb9 0 std::get_new_handler()
PUBLIC 19fd9 0 operator new(unsigned int)
PUBLIC 1a049 0 operator new(unsigned int, std::nothrow_t const&)
PUBLIC 1a067 0 operator new[](unsigned int)
PUBLIC 1a075 0 operator new[](unsigned int, std::nothrow_t const&)
PUBLIC 1a079 0 __cxa_guard_acquire
PUBLIC 1a0f1 0 __cxa_guard_release
PUBLIC 1a12d 0 __cxa_guard_abort
PUBLIC 1a169 0 __gxx_personality_v0
PUBLIC 1a2f9 0 __cxxabiv1::__pointer_type_info::~__pointer_type_info()
PUBLIC 1a2fd 0 __cxxabiv1::__pointer_type_info::~__pointer_type_info()
PUBLIC 1a321 0 __cxxabiv1::__pointer_type_info::do_can_catch_ptr(__cxxabiv1::__pbase_type_info const*, void*&, unsigned int, bool&) const
PUBLIC 1a375 0 __cxxabiv1::__si_class_type_info::~__si_class_type_info()
PUBLIC 1a379 0 __cxxabiv1::__si_class_type_info::~__si_class_type_info()
PUBLIC 1a39b 0 __cxxabiv1::__si_class_type_info::walk_to(__cxxabiv1::__class_type_info const*, void*&, __cxxabiv1::__UpcastInfo&) const
PUBLIC 1a3d1 0 __cxxabiv1::__si_class_type_info::code() const
PUBLIC 1a3d5 0 __gabixx::__default_unexpected()
PUBLIC 1a3dd 0 std::terminate()
PUBLIC 1a401 0 __gabixx::__default_terminate()
PUBLIC 1a415 0 __gabixx::__terminate(void (*)())
PUBLIC 1a439 0 std::get_terminate()
PUBLIC 1a459 0 std::set_terminate(void (*)())
PUBLIC 1a485 0 std::get_unexpected()
PUBLIC 1a4a5 0 std::set_unexpected(void (*)())
PUBLIC 1a4d1 0 std::unexpected()
PUBLIC 1a4fd 0 std::type_info::~type_info()
PUBLIC 1a4ff 0 std::type_info::~type_info()
PUBLIC 1a503 0 std::type_info::operator==(std::type_info const&) const
PUBLIC 1a51b 0 std::type_info::operator!=(std::type_info const&) const
PUBLIC 1a52f 0 std::type_info::before(std::type_info const&) const
PUBLIC 1a541 0 std::bad_cast::bad_cast()
PUBLIC 1a559 0 std::bad_cast::~bad_cast()
PUBLIC 1a55d 0 std::bad_cast::~bad_cast()
PUBLIC 1a56d 0 std::bad_cast::what() const
PUBLIC 1a581 0 std::bad_typeid::bad_typeid()
PUBLIC 1a599 0 std::bad_typeid::~bad_typeid()
PUBLIC 1a59d 0 std::bad_typeid::~bad_typeid()
PUBLIC 1a5ad 0 std::bad_typeid::what() const
PUBLIC 1a5c1 0 __cxxabiv1::__vmi_class_type_info::~__vmi_class_type_info()
PUBLIC 1a5c5 0 __cxxabiv1::__vmi_class_type_info::~__vmi_class_type_info()
PUBLIC 1a5e9 0 __cxxabiv1::__vmi_class_type_info::walk_to(__cxxabiv1::__class_type_info const*, void*&, __cxxabiv1::__UpcastInfo&) const
PUBLIC 1a7dd 0 __cxxabiv1::__vmi_class_type_info::code() const
PUBLIC 1a7e1 0 std::__stl_throw_runtime_error(char const*)
PUBLIC 1a8c1 0 std::__stl_throw_range_error(char const*)
PUBLIC 1a9a1 0 std::__stl_throw_out_of_range(char const*)
PUBLIC 1aa81 0 std::__stl_throw_length_error(char const*)
PUBLIC 1ab61 0 std::__stl_throw_invalid_argument(char const*)
PUBLIC 1ac41 0 std::__stl_throw_overflow_error(char const*)
PUBLIC 1ad21 0 std::__Named_exception::__Named_exception(std::string const&)
PUBLIC 1ad99 0 std::__Named_exception::__Named_exception(std::__Named_exception const&)
PUBLIC 1ae15 0 std::__Named_exception::operator=(std::__Named_exception const&)
PUBLIC 1ae85 0 std::logic_error::~logic_error()
PUBLIC 1aeb1 0 std::__Named_exception::~__Named_exception()
PUBLIC 1aee1 0 std::__Named_exception::what() const
PUBLIC 1aee9 0 std::logic_error::~logic_error()
PUBLIC 1af19 0 std::runtime_error::~runtime_error()
PUBLIC 1af49 0 std::domain_error::~domain_error()
PUBLIC 1af79 0 std::invalid_argument::~invalid_argument()
PUBLIC 1afa9 0 std::length_error::~length_error()
PUBLIC 1afd9 0 std::out_of_range::~out_of_range()
PUBLIC 1b009 0 std::range_error::~range_error()
PUBLIC 1b039 0 std::overflow_error::~overflow_error()
PUBLIC 1b069 0 std::underflow_error::~underflow_error()
PUBLIC 1b099 0 std::_STLP_mutex::~_STLP_mutex()
PUBLIC 1b0a9 0 std::__malloc_alloc::allocate(unsigned int)
PUBLIC 1b111 0 std::__malloc_alloc::set_malloc_handler(void (*)())
PUBLIC 1b145 0 std::__node_alloc_impl::_M_allocate(unsigned int&)
PUBLIC 1b20d 0 std::__node_alloc_impl::_S_refill(unsigned int)
PUBLIC 1b279 0 std::__node_alloc_impl::_M_deallocate(void*, unsigned int)
PUBLIC 1b2bd 0 std::__node_alloc_impl::_S_chunk_alloc(unsigned int, int&)
PUBLIC 1b43d 0 std::__node_alloc::_M_allocate(unsigned int&)
PUBLIC 1b441 0 std::__node_alloc::_M_deallocate(void*, unsigned int)
PUBLIC 1b485 0 std::priv::_Pthread_alloc_per_thread_state::_M_refill(unsigned int)
PUBLIC 1b4e1 0 std::priv::_Pthread_alloc_impl::_S_chunk_alloc(unsigned int, unsigned int&, std::priv::_Pthread_alloc_per_thread_state*)
PUBLIC 1b60d 0 std::priv::_Pthread_alloc_impl::_S_destructor(void*)
PUBLIC 1b639 0 std::priv::_Pthread_alloc_impl::_S_new_per_thread_state()
PUBLIC 1b689 0 std::priv::_Pthread_alloc_impl::_S_get_per_thread_state()
PUBLIC 1b7b5 0 std::priv::_Pthread_alloc_impl::allocate(unsigned int&)
PUBLIC 1b83d 0 std::priv::_Pthread_alloc_impl::deallocate(void*, unsigned int)
PUBLIC 1b871 0 std::priv::_Pthread_alloc_impl::allocate(unsigned int&, std::priv::_Pthread_alloc_per_thread_state*)
PUBLIC 1b923 0 std::priv::_Pthread_alloc_impl::deallocate(void*, unsigned int, std::priv::_Pthread_alloc_per_thread_state*)
PUBLIC 1b975 0 std::priv::_Pthread_alloc_impl::reallocate(void*, unsigned int, unsigned int&)
PUBLIC 1b9f3 0 std::priv::_Pthread_alloc::allocate(unsigned int&)
PUBLIC 1b9f7 0 std::priv::_Pthread_alloc::deallocate(void*, unsigned int)
PUBLIC 1ba2b 0 std::priv::_Pthread_alloc::allocate(unsigned int&, std::priv::_Pthread_alloc_per_thread_state*)
PUBLIC 1ba2f 0 std::priv::_Pthread_alloc::deallocate(void*, unsigned int, std::priv::_Pthread_alloc_per_thread_state*)
PUBLIC 1ba81 0 std::priv::_Pthread_alloc::reallocate(void*, unsigned int, unsigned int&)
PUBLIC 1baff 0 std::priv::_Pthread_alloc::_S_get_per_thread_state()
PUBLIC 1bb05 0 __cxa_end_cleanup
PUBLIC 1bb15 0 __cxa_type_match
PUBLIC 1bb81 0 __cxa_begin_cleanup
PUBLIC 1bbcb 0 helper_end_cleanup
PUBLIC 1bc21 0 __cxa_call_unexpected
PUBLIC 1bd89 0 __cxxabiv1::readULEB128(unsigned char const**)
PUBLIC 1bdb7 0 __cxxabiv1::readSLEB128(unsigned char const**)
PUBLIC 1bdf9 0 __cxxabiv1::readEncodedPointer(unsigned char const**, unsigned char)
PUBLIC 1bf11 0 std::exception::exception()
PUBLIC 1bf21 0 std::bad_exception::~bad_exception()
PUBLIC 1bf23 0 std::exception::~exception()
PUBLIC 1bf29 0 std::exception::what() const
PUBLIC 1bf3d 0 std::bad_exception::bad_exception()
PUBLIC 1bf4d 0 std::bad_exception::~bad_exception()
PUBLIC 1bf51 0 std::bad_exception::what() const
PUBLIC 1bf69 0 std::uncaught_exception()
PUBLIC 1bf7d 0 __cxxabiv1::__function_type_info::~__function_type_info()
PUBLIC 1bf81 0 __cxxabiv1::__function_type_info::~__function_type_info()
PUBLIC 1bfa3 0 __cxxabiv1::__function_type_info::can_catch(__cxxabiv1::__shim_type_info const*, void*&) const
PUBLIC 1bfa9 0 __cxxabiv1::__fundamental_type_info::~__fundamental_type_info()
PUBLIC 1bfad 0 __cxxabiv1::__fundamental_type_info::~__fundamental_type_info()
PUBLIC 1bfcf 0 __cxxabiv1::__fundamental_type_info::can_catch(__cxxabiv1::__shim_type_info const*, void*&) const
PUBLIC 1bfd5 0 __cxxabiv1::__pbase_type_info::~__pbase_type_info()
PUBLIC 1bfd9 0 __cxxabiv1::__pbase_type_info::~__pbase_type_info()
PUBLIC 1bfdd 0 __cxxabiv1::__pbase_type_info::can_catch(__cxxabiv1::__shim_type_info const*, void*&) const
PUBLIC 1c009 0 __cxxabiv1::__pbase_type_info::can_catch_typeinfo_wrapper(__cxxabiv1::__shim_type_info const*, void*&, unsigned int) const
PUBLIC 1c0d5 0 __cxxabiv1::__pbase_type_info::can_catch_ptr(__cxxabiv1::__pbase_type_info const*, void*&, unsigned int) const
PUBLIC 1c149 0 __cxa_bad_cast
PUBLIC 1c171 0 __cxa_bad_typeid
PUBLIC 1c198 0 __aeabi_uidiv
PUBLIC 1c240 0 __aeabi_uidivmod
PUBLIC 1c260 0 __aeabi_uldivmod
PUBLIC 1c29c 0 __aeabi_idiv0
PUBLIC 1c2ac 0 __gnu_ldivmod_helper
PUBLIC 1c2e8 0 __gnu_uldivmod_helper
PUBLIC 1c324 0 selfrel_offset31
PUBLIC 1c33c 0 search_EIT_table
PUBLIC 1c3e0 0 __gnu_unwind_get_pr_addr
PUBLIC 1c430 0 get_eit_entry
PUBLIC 1c530 0 restore_non_core_regs
PUBLIC 1c59c 0 _Unwind_decode_typeinfo_ptr.isra.0
PUBLIC 1c5b0 0 __gnu_unwind_24bit.isra.1
PUBLIC 1c5b8 0 _Unwind_DebugHook
PUBLIC 1c5bc 0 unwind_phase2
PUBLIC 1c620 0 unwind_phase2_forced
PUBLIC 1c748 0 _Unwind_GetCFA
PUBLIC 1c750 0 __gnu_Unwind_RaiseException
PUBLIC 1c7f4 0 __gnu_Unwind_ForcedUnwind
PUBLIC 1c810 0 __gnu_Unwind_Resume
PUBLIC 1c884 0 __gnu_Unwind_Resume_or_Rethrow
PUBLIC 1c8a4 0 _Unwind_Complete
PUBLIC 1c8a8 0 _Unwind_DeleteException
PUBLIC 1c8c0 0 _Unwind_VRS_Get
PUBLIC 1c91c 0 _Unwind_GetGR
PUBLIC 1c944 0 _Unwind_VRS_Set
PUBLIC 1c9a0 0 _Unwind_SetGR
PUBLIC 1c9cc 0 __gnu_Unwind_Backtrace
PUBLIC 1ca94 0 __gnu_unwind_pr_common
PUBLIC 1ce80 0 __aeabi_unwind_cpp_pr0
PUBLIC 1ce88 0 __aeabi_unwind_cpp_pr1
PUBLIC 1ce90 0 __aeabi_unwind_cpp_pr2
PUBLIC 1ce98 0 _Unwind_VRS_Pop
PUBLIC 1d1f8 0 restore_core_regs
PUBLIC 1d20c 0 __gnu_Unwind_Restore_VFP
PUBLIC 1d214 0 __gnu_Unwind_Save_VFP
PUBLIC 1d21c 0 __gnu_Unwind_Restore_VFP_D
PUBLIC 1d224 0 __gnu_Unwind_Save_VFP_D
PUBLIC 1d22c 0 __gnu_Unwind_Restore_VFP_D_16_to_31
PUBLIC 1d234 0 __gnu_Unwind_Save_VFP_D_16_to_31
PUBLIC 1d23c 0 __gnu_Unwind_Restore_WMMXD
PUBLIC 1d280 0 __gnu_Unwind_Save_WMMXD
PUBLIC 1d2c4 0 __gnu_Unwind_Restore_WMMXC
PUBLIC 1d2d8 0 __gnu_Unwind_Save_WMMXC
PUBLIC 1d2ec 0 _Unwind_RaiseException
PUBLIC 1d310 0 _Unwind_Resume
PUBLIC 1d334 0 ___Unwind_Resume_or_Rethrow
PUBLIC 1d358 0 ___Unwind_ForcedUnwind
PUBLIC 1d37c 0 ___Unwind_Backtrace
PUBLIC 1d3a0 0 next_unwind_byte
PUBLIC 1d400 0 _Unwind_GetGR.constprop.0
PUBLIC 1d428 0 unwind_UCB_from_context
PUBLIC 1d42c 0 __gnu_unwind_execute
PUBLIC 1d7c4 0 __gnu_unwind_frame
PUBLIC 1d804 0 _Unwind_GetRegionStart
PUBLIC 1d814 0 _Unwind_GetLanguageSpecificData
PUBLIC 1d830 0 _Unwind_GetDataRelBase
PUBLIC 1d838 0 _Unwind_GetTextRelBase
PUBLIC 1d840 0 __divdi3
PUBLIC 1d9bc 0 __udivdi3
PUBLIC 1dac8 0 __aeabi_llsr
PUBLIC 1dae4 0 __aeabi_llsl
STACK CFI INIT 9d10 94 .cfa: sp 0 + .ra: lr
STACK CFI 9d12 .cfa: sp 16 + .ra: .cfa -4 + ^ r4: .cfa -16 + ^ r6: .cfa -12 + ^ r7: .cfa -8 + ^
STACK CFI 9d14 .cfa: r7 8 +
STACK CFI INIT 9da4 44 .cfa: sp 0 + .ra: lr
STACK CFI 9da6 .cfa: sp 16 + .ra: .cfa -4 + ^ r4: .cfa -16 + ^ r6: .cfa -12 + ^ r7: .cfa -8 + ^
STACK CFI 9da8 .cfa: r7 8 +
STACK CFI INIT 9de8 140 .cfa: sp 0 + .ra: lr
STACK CFI 9dea .cfa: sp 20 + .ra: .cfa -4 + ^ r4: .cfa -20 + ^ r5: .cfa -16 + ^ r6: .cfa -12 + ^ r7: .cfa -8 + ^
STACK CFI 9dec .cfa: r7 8 +
STACK CFI 9df0 r10: .cfa -28 + ^ r11: .cfa -24 + ^ r8: .cfa -36 + ^ r9: .cfa -32 + ^
STACK CFI INIT 9f28 3e .cfa: sp 0 + .ra: lr
STACK CFI 9f2a .cfa: sp 20 + .ra: .cfa -4 + ^ r4: .cfa -20 + ^ r5: .cfa -16 + ^ r6: .cfa -12 + ^ r7: .cfa -8 + ^
STACK CFI 9f2c .cfa: r7 8 +
STACK CFI 9f30 r8: .cfa -24 + ^
STACK CFI INIT 9f68 38 .cfa: sp 0 + .ra: lr
STACK CFI 9f6a .cfa: sp 8 + .ra: .cfa -4 + ^ r7: .cfa -8 + ^
STACK CFI 9f6c .cfa: r7 8 +
STACK CFI INIT 9fa0 3e .cfa: sp 0 + .ra: lr
STACK CFI 9fa2 .cfa: sp 20 + .ra: .cfa -4 + ^ r4: .cfa -20 + ^ r5: .cfa -16 + ^ r6: .cfa -12 + ^ r7: .cfa -8 + ^
STACK CFI 9fa4 .cfa: r7 8 +
STACK CFI 9fa8 r11: .cfa -24 + ^ r8: .cfa -32 + ^ r9: .cfa -28 + ^
STACK CFI INIT 9fe0 60 .cfa: sp 0 + .ra: lr
STACK CFI 9fe2 .cfa: sp 16 + .ra: .cfa -4 + ^ r4: .cfa -16 + ^ r6: .cfa -12 + ^ r7: .cfa -8 + ^
STACK CFI 9fe4 .cfa: r7 8 +
STACK CFI INIT a040 10 .cfa: sp 0 + .ra: lr
STACK CFI INIT a050 1e .cfa: sp 0 + .ra: lr
STACK CFI INIT a070 368 .cfa: sp 0 + .ra: lr
STACK CFI a074 .cfa: sp 24 + .ra: .cfa -4 + ^ r11: .cfa -8 + ^ r4: .cfa -24 + ^ r5: .cfa -20 + ^ r6: .cfa -16 + ^ r7: .cfa -12 + ^
STACK CFI a078 .cfa: r11 8 +
STACK CFI INIT a3d8 1f0 .cfa: sp 0 + .ra: lr
STACK CFI a3dc .cfa: sp 16 + .ra: .cfa -4 + ^ r10: .cfa -12 + ^ r11: .cfa -8 + ^ r4: .cfa -16 + ^
STACK CFI a3e0 .cfa: r11 8 +
STACK CFI INIT a5c8 480 .cfa: sp 0 + .ra: lr
STACK CFI a5cc .cfa: sp 36 + .ra: .cfa -4 + ^ r10: .cfa -12 + ^ r11: .cfa -8 + ^ r4: .cfa -36 + ^ r5: .cfa -32 + ^ r6: .cfa -28 + ^ r7: .cfa -24 + ^ r8: .cfa -20 + ^ r9: .cfa -16 + ^
STACK CFI a5d0 .cfa: r11 8 +
STACK CFI INIT aa48 114 .cfa: sp 0 + .ra: lr
STACK CFI aa4c .cfa: sp 36 + .ra: .cfa -4 + ^ r10: .cfa -12 + ^ r11: .cfa -8 + ^ r4: .cfa -36 + ^ r5: .cfa -32 + ^ r6: .cfa -28 + ^ r7: .cfa -24 + ^ r8: .cfa -20 + ^ r9: .cfa -16 + ^
STACK CFI aa50 .cfa: r11 8 +
STACK CFI INIT ab5c 3f0 .cfa: sp 0 + .ra: lr
STACK CFI ab60 .cfa: sp 36 + .ra: .cfa -4 + ^ r10: .cfa -12 + ^ r11: .cfa -8 + ^ r4: .cfa -36 + ^ r5: .cfa -32 + ^ r6: .cfa -28 + ^ r7: .cfa -24 + ^ r8: .cfa -20 + ^ r9: .cfa -16 + ^
STACK CFI ab64 .cfa: r11 8 +
STACK CFI INIT af4c 134 .cfa: sp 0 + .ra: lr
STACK CFI af50 .cfa: sp 24 + .ra: .cfa -4 + ^ r11: .cfa -8 + ^ r4: .cfa -24 + ^ r5: .cfa -20 + ^ r6: .cfa -16 + ^ r7: .cfa -12 + ^
STACK CFI af54 .cfa: r11 8 +
STACK CFI INIT b080 8c .cfa: sp 0 + .ra: lr
STACK CFI b084 .cfa: sp 24 + .ra: .cfa -4 + ^ r10: .cfa -12 + ^ r11: .cfa -8 + ^ r4: .cfa -24 + ^ r5: .cfa -20 + ^ r6: .cfa -16 + ^
STACK CFI b088 .cfa: r11 8 +
STACK CFI INIT b10c e0 .cfa: sp 0 + .ra: lr
STACK CFI b110 .cfa: sp 36 + .ra: .cfa -4 + ^ r10: .cfa -12 + ^ r11: .cfa -8 + ^ r4: .cfa -36 + ^ r5: .cfa -32 + ^ r6: .cfa -28 + ^ r7: .cfa -24 + ^ r8: .cfa -20 + ^ r9: .cfa -16 + ^
STACK CFI b114 .cfa: r11 8 +
STACK CFI INIT b1ec 108 .cfa: sp 0 + .ra: lr
STACK CFI b1f0 .cfa: sp 24 + .ra: .cfa -4 + ^ r11: .cfa -8 + ^ r4: .cfa -24 + ^ r5: .cfa -20 + ^ r6: .cfa -16 + ^ r7: .cfa -12 + ^
STACK CFI b1f4 .cfa: r11 8 +
STACK CFI INIT b2f4 4b0 .cfa: sp 0 + .ra: lr
STACK CFI b2f8 .cfa: sp 36 + .ra: .cfa -4 + ^ r10: .cfa -12 + ^ r11: .cfa -8 + ^ r4: .cfa -36 + ^ r5: .cfa -32 + ^ r6: .cfa -28 + ^ r7: .cfa -24 + ^ r8: .cfa -20 + ^ r9: .cfa -16 + ^
STACK CFI b2fc .cfa: r11 8 +
STACK CFI INIT b7a4 7c .cfa: sp 0 + .ra: lr
STACK CFI b7a8 .cfa: sp 24 + .ra: .cfa -4 + ^ r10: .cfa -12 + ^ r11: .cfa -8 + ^ r4: .cfa -24 + ^ r5: .cfa -20 + ^ r6: .cfa -16 + ^
STACK CFI b7ac .cfa: r11 8 +
STACK CFI INIT b820 c0 .cfa: sp 0 + .ra: lr
STACK CFI b824 .cfa: sp 36 + .ra: .cfa -4 + ^ r10: .cfa -12 + ^ r11: .cfa -8 + ^ r4: .cfa -36 + ^ r5: .cfa -32 + ^ r6: .cfa -28 + ^ r7: .cfa -24 + ^ r8: .cfa -20 + ^ r9: .cfa -16 + ^
STACK CFI b828 .cfa: r11 8 +
STACK CFI INIT b8e0 1c8 .cfa: sp 0 + .ra: lr
STACK CFI b8e4 .cfa: sp 36 + .ra: .cfa -4 + ^ r10: .cfa -12 + ^ r11: .cfa -8 + ^ r4: .cfa -36 + ^ r5: .cfa -32 + ^ r6: .cfa -28 + ^ r7: .cfa -24 + ^ r8: .cfa -20 + ^ r9: .cfa -16 + ^
STACK CFI b8e8 .cfa: r11 8 +
STACK CFI INIT baa8 17c .cfa: sp 0 + .ra: lr
STACK CFI baac .cfa: sp 24 + .ra: .cfa -4 + ^ r10: .cfa -12 + ^ r11: .cfa -8 + ^ r4: .cfa -24 + ^ r5: .cfa -20 + ^ r6: .cfa -16 + ^
STACK CFI bab0 .cfa: r11 8 +
STACK CFI INIT bc24 dc .cfa: sp 0 + .ra: lr
STACK CFI bc28 .cfa: sp 32 + .ra: .cfa -4 + ^ r11: .cfa -8 + ^ r4: .cfa -32 + ^ r5: .cfa -28 + ^ r6: .cfa -24 + ^ r7: .cfa -20 + ^ r8: .cfa -16 + ^ r9: .cfa -12 + ^
STACK CFI bc2c .cfa: r11 8 +
STACK CFI INIT bd00 a4 .cfa: sp 0 + .ra: lr
STACK CFI bd04 .cfa: sp 24 + .ra: .cfa -4 + ^ r11: .cfa -8 + ^ r4: .cfa -24 + ^ r5: .cfa -20 + ^ r6: .cfa -16 + ^ r7: .cfa -12 + ^
STACK CFI bd08 .cfa: r11 8 +
STACK CFI INIT bda4 48 .cfa: sp 0 + .ra: lr
STACK CFI INIT bdec 1d8 .cfa: sp 0 + .ra: lr
STACK CFI bdf0 .cfa: sp 36 + .ra: .cfa -4 + ^ r10: .cfa -12 + ^ r11: .cfa -8 + ^ r4: .cfa -36 + ^ r5: .cfa -32 + ^ r6: .cfa -28 + ^ r7: .cfa -24 + ^ r8: .cfa -20 + ^ r9: .cfa -16 + ^
STACK CFI bdf4 .cfa: r11 8 +
STACK CFI INIT bfc4 10 .cfa: sp 0 + .ra: lr
STACK CFI INIT bfd4 1c8 .cfa: sp 0 + .ra: lr
STACK CFI bfd8 .cfa: sp 36 + .ra: .cfa -4 + ^ r10: .cfa -12 + ^ r11: .cfa -8 + ^ r4: .cfa -36 + ^ r5: .cfa -32 + ^ r6: .cfa -28 + ^ r7: .cfa -24 + ^ r8: .cfa -20 + ^ r9: .cfa -16 + ^
STACK CFI bfdc .cfa: r11 8 +
STACK CFI INIT c19c 140 .cfa: sp 0 + .ra: lr
STACK CFI c1a0 .cfa: sp 36 + .ra: .cfa -4 + ^ r10: .cfa -12 + ^ r11: .cfa -8 + ^ r4: .cfa -36 + ^ r5: .cfa -32 + ^ r6: .cfa -28 + ^ r7: .cfa -24 + ^ r8: .cfa -20 + ^ r9: .cfa -16 + ^
STACK CFI c1a4 .cfa: r11 8 +
STACK CFI INIT c2dc 144 .cfa: sp 0 + .ra: lr
STACK CFI c2e0 .cfa: sp 32 + .ra: .cfa -4 + ^ r11: .cfa -8 + ^ r4: .cfa -32 + ^ r5: .cfa -28 + ^ r6: .cfa -24 + ^ r7: .cfa -20 + ^ r8: .cfa -16 + ^ r9: .cfa -12 + ^
STACK CFI c2e4 .cfa: r11 8 +
STACK CFI INIT c420 3d0 .cfa: sp 0 + .ra: lr
STACK CFI c424 .cfa: sp 36 + .ra: .cfa -4 + ^ r10: .cfa -12 + ^ r11: .cfa -8 + ^ r4: .cfa -36 + ^ r5: .cfa -32 + ^ r6: .cfa -28 + ^ r7: .cfa -24 + ^ r8: .cfa -20 + ^ r9: .cfa -16 + ^
STACK CFI c428 .cfa: r11 8 +
STACK CFI INIT c7f0 210 .cfa: sp 0 + .ra: lr
STACK CFI c7f4 .cfa: sp 36 + .ra: .cfa -4 + ^ r10: .cfa -12 + ^ r11: .cfa -8 + ^ r4: .cfa -36 + ^ r5: .cfa -32 + ^ r6: .cfa -28 + ^ r7: .cfa -24 + ^ r8: .cfa -20 + ^ r9: .cfa -16 + ^
STACK CFI c7f8 .cfa: r11 8 +
STACK CFI INIT ca00 1c8 .cfa: sp 0 + .ra: lr
STACK CFI ca04 .cfa: sp 32 + .ra: .cfa -4 + ^ r11: .cfa -8 + ^ r4: .cfa -32 + ^ r5: .cfa -28 + ^ r6: .cfa -24 + ^ r7: .cfa -20 + ^ r8: .cfa -16 + ^ r9: .cfa -12 + ^
STACK CFI ca08 .cfa: r11 8 +
STACK CFI INIT cbc8 68 .cfa: sp 0 + .ra: lr
STACK CFI cbe0 .cfa: sp 8 + .ra: .cfa -4 + ^ r11: .cfa -8 + ^
STACK CFI cbe4 .cfa: r11 8 +
STACK CFI INIT cc30 48 .cfa: sp 0 + .ra: lr
STACK CFI INIT cc78 18 .cfa: sp 0 + .ra: lr
STACK CFI INIT cc90 124c .cfa: sp 0 + .ra: lr
STACK CFI cc94 .cfa: sp 36 + .ra: .cfa -4 + ^ r10: .cfa -12 + ^ r11: .cfa -8 + ^ r4: .cfa -36 + ^ r5: .cfa -32 + ^ r6: .cfa -28 + ^ r7: .cfa -24 + ^ r8: .cfa -20 + ^ r9: .cfa -16 + ^
STACK CFI cc98 .cfa: r11 8 +
STACK CFI INIT dedc 138 .cfa: sp 0 + .ra: lr
STACK CFI dee0 .cfa: sp 32 + .ra: .cfa -4 + ^ r11: .cfa -8 + ^ r4: .cfa -32 + ^ r5: .cfa -28 + ^ r6: .cfa -24 + ^ r7: .cfa -20 + ^ r8: .cfa -16 + ^ r9: .cfa -12 + ^
STACK CFI dee4 .cfa: r11 8 +
STACK CFI INIT e014 554 .cfa: sp 0 + .ra: lr
STACK CFI e018 .cfa: sp 36 + .ra: .cfa -4 + ^ r10: .cfa -12 + ^ r11: .cfa -8 + ^ r4: .cfa -36 + ^ r5: .cfa -32 + ^ r6: .cfa -28 + ^ r7: .cfa -24 + ^ r8: .cfa -20 + ^ r9: .cfa -16 + ^
STACK CFI e01c .cfa: r11 8 +
STACK CFI INIT e568 1e4 .cfa: sp 0 + .ra: lr
STACK CFI e56c .cfa: sp 36 + .ra: .cfa -4 + ^ r10: .cfa -12 + ^ r11: .cfa -8 + ^ r4: .cfa -36 + ^ r5: .cfa -32 + ^ r6: .cfa -28 + ^ r7: .cfa -24 + ^ r8: .cfa -20 + ^ r9: .cfa -16 + ^
STACK CFI e570 .cfa: r11 8 +
STACK CFI INIT e74c 144 .cfa: sp 0 + .ra: lr
STACK CFI e750 .cfa: sp 24 + .ra: .cfa -4 + ^ r11: .cfa -8 + ^ r4: .cfa -24 + ^ r5: .cfa -20 + ^ r6: .cfa -16 + ^ r7: .cfa -12 + ^
STACK CFI e754 .cfa: r11 8 +
STACK CFI INIT e890 1a4 .cfa: sp 0 + .ra: lr
STACK CFI e894 .cfa: sp 36 + .ra: .cfa -4 + ^ r10: .cfa -12 + ^ r11: .cfa -8 + ^ r4: .cfa -36 + ^ r5: .cfa -32 + ^ r6: .cfa -28 + ^ r7: .cfa -24 + ^ r8: .cfa -20 + ^ r9: .cfa -16 + ^
STACK CFI e898 .cfa: r11 8 +
STACK CFI INIT ea34 74 .cfa: sp 0 + .ra: lr
STACK CFI ea38 .cfa: sp 24 + .ra: .cfa -4 + ^ r10: .cfa -12 + ^ r11: .cfa -8 + ^ r4: .cfa -24 + ^ r5: .cfa -20 + ^ r6: .cfa -16 + ^
STACK CFI ea3c .cfa: r11 8 +
STACK CFI INIT eaa8 4 .cfa: sp 0 + .ra: lr
STACK CFI INIT eaac 4c .cfa: sp 0 + .ra: lr
STACK CFI eab0 .cfa: sp 16 + .ra: .cfa -4 + ^ r10: .cfa -12 + ^ r11: .cfa -8 + ^ r4: .cfa -16 + ^
STACK CFI eab4 .cfa: r11 8 +
STACK CFI INIT eaf8 14c .cfa: sp 0 + .ra: lr
STACK CFI eafc .cfa: sp 32 + .ra: .cfa -4 + ^ r11: .cfa -8 + ^ r4: .cfa -32 + ^ r5: .cfa -28 + ^ r6: .cfa -24 + ^ r7: .cfa -20 + ^ r8: .cfa -16 + ^ r9: .cfa -12 + ^
STACK CFI eb00 .cfa: r11 8 +
STACK CFI INIT ec44 14 .cfa: sp 0 + .ra: lr
STACK CFI ec48 .cfa: sp 8 + .ra: .cfa -4 + ^ r11: .cfa -8 + ^
STACK CFI ec4c .cfa: r11 8 +
STACK CFI INIT ec58 214 .cfa: sp 0 + .ra: lr
STACK CFI ec5c .cfa: sp 36 + .ra: .cfa -4 + ^ r10: .cfa -12 + ^ r11: .cfa -8 + ^ r4: .cfa -36 + ^ r5: .cfa -32 + ^ r6: .cfa -28 + ^ r7: .cfa -24 + ^ r8: .cfa -20 + ^ r9: .cfa -16 + ^
STACK CFI ec60 .cfa: r11 8 +
STACK CFI INIT ee6c 20c .cfa: sp 0 + .ra: lr
STACK CFI ee70 .cfa: sp 36 + .ra: .cfa -4 + ^ r10: .cfa -12 + ^ r11: .cfa -8 + ^ r4: .cfa -36 + ^ r5: .cfa -32 + ^ r6: .cfa -28 + ^ r7: .cfa -24 + ^ r8: .cfa -20 + ^ r9: .cfa -16 + ^
STACK CFI ee74 .cfa: r11 8 +
STACK CFI INIT dedc 138 .cfa: sp 0 + .ra: lr
STACK CFI dee0 .cfa: sp 32 + .ra: .cfa -4 + ^ r11: .cfa -8 + ^ r4: .cfa -32 + ^ r5: .cfa -28 + ^ r6: .cfa -24 + ^ r7: .cfa -20 + ^ r8: .cfa -16 + ^ r9: .cfa -12 + ^
STACK CFI dee4 .cfa: r11 8 +
STACK CFI INIT f078 54 .cfa: sp 0 + .ra: lr
STACK CFI f07c .cfa: sp 16 + .ra: .cfa -4 + ^ r11: .cfa -8 + ^ r4: .cfa -16 + ^ r5: .cfa -12 + ^
STACK CFI f080 .cfa: r11 8 +
STACK CFI INIT f0cc 1d4 .cfa: sp 0 + .ra: lr
STACK CFI f0d0 .cfa: sp 32 + .ra: .cfa -4 + ^ r11: .cfa -8 + ^ r4: .cfa -32 + ^ r5: .cfa -28 + ^ r6: .cfa -24 + ^ r7: .cfa -20 + ^ r8: .cfa -16 + ^ r9: .cfa -12 + ^
STACK CFI f0d4 .cfa: r11 8 +
STACK CFI INIT f2a0 1c .cfa: sp 0 + .ra: lr
STACK CFI INIT f2bc 30 .cfa: sp 0 + .ra: lr
STACK CFI INIT f2ec 258 .cfa: sp 0 + .ra: lr
STACK CFI f2f0 .cfa: sp 36 + .ra: .cfa -4 + ^ r10: .cfa -12 + ^ r11: .cfa -8 + ^ r4: .cfa -36 + ^ r5: .cfa -32 + ^ r6: .cfa -28 + ^ r7: .cfa -24 + ^ r8: .cfa -20 + ^ r9: .cfa -16 + ^
STACK CFI f2f4 .cfa: r11 8 +
STACK CFI INIT f544 5a0 .cfa: sp 0 + .ra: lr
STACK CFI f548 .cfa: sp 36 + .ra: .cfa -4 + ^ r10: .cfa -12 + ^ r11: .cfa -8 + ^ r4: .cfa -36 + ^ r5: .cfa -32 + ^ r6: .cfa -28 + ^ r7: .cfa -24 + ^ r8: .cfa -20 + ^ r9: .cfa -16 + ^
STACK CFI f54c .cfa: r11 8 +
STACK CFI INIT fae4 4c .cfa: sp 0 + .ra: lr
STACK CFI fae8 .cfa: sp 16 + .ra: .cfa -4 + ^ r10: .cfa -12 + ^ r11: .cfa -8 + ^ r4: .cfa -16 + ^
STACK CFI faec .cfa: r11 8 +
STACK CFI INIT fb30 124 .cfa: sp 0 + .ra: lr
STACK CFI fb34 .cfa: sp 36 + .ra: .cfa -4 + ^ r10: .cfa -12 + ^ r11: .cfa -8 + ^ r4: .cfa -36 + ^ r5: .cfa -32 + ^ r6: .cfa -28 + ^ r7: .cfa -24 + ^ r8: .cfa -20 + ^ r9: .cfa -16 + ^
STACK CFI fb38 .cfa: r11 8 +
STACK CFI INIT fc54 b4 .cfa: sp 0 + .ra: lr
STACK CFI fc58 .cfa: sp 36 + .ra: .cfa -4 + ^ r10: .cfa -12 + ^ r11: .cfa -8 + ^ r4: .cfa -36 + ^ r5: .cfa -32 + ^ r6: .cfa -28 + ^ r7: .cfa -24 + ^ r8: .cfa -20 + ^ r9: .cfa -16 + ^
STACK CFI fc5c .cfa: r11 8 +
STACK CFI INIT fd08 17c .cfa: sp 0 + .ra: lr
STACK CFI fd0c .cfa: sp 36 + .ra: .cfa -4 + ^ r10: .cfa -12 + ^ r11: .cfa -8 + ^ r4: .cfa -36 + ^ r5: .cfa -32 + ^ r6: .cfa -28 + ^ r7: .cfa -24 + ^ r8: .cfa -20 + ^ r9: .cfa -16 + ^
STACK CFI fd10 .cfa: r11 8 +
STACK CFI INIT fe84 a0 .cfa: sp 0 + .ra: lr
STACK CFI fe88 .cfa: sp 32 + .ra: .cfa -4 + ^ r10: .cfa -12 + ^ r11: .cfa -8 + ^ r4: .cfa -32 + ^ r5: .cfa -28 + ^ r6: .cfa -24 + ^ r7: .cfa -20 + ^ r8: .cfa -16 + ^
STACK CFI fe8c .cfa: r11 8 +
STACK CFI INIT ff24 5c .cfa: sp 0 + .ra: lr
STACK CFI ff28 .cfa: sp 16 + .ra: .cfa -4 + ^ r10: .cfa -12 + ^ r11: .cfa -8 + ^ r4: .cfa -16 + ^
STACK CFI ff2c .cfa: r11 8 +
STACK CFI INIT ff80 25c .cfa: sp 0 + .ra: lr
STACK CFI ff84 .cfa: sp 36 + .ra: .cfa -4 + ^ r10: .cfa -12 + ^ r11: .cfa -8 + ^ r4: .cfa -36 + ^ r5: .cfa -32 + ^ r6: .cfa -28 + ^ r7: .cfa -24 + ^ r8: .cfa -20 + ^ r9: .cfa -16 + ^
STACK CFI ff88 .cfa: r11 8 +
STACK CFI INIT 101dc 58 .cfa: sp 0 + .ra: lr
STACK CFI 101e0 .cfa: sp 8 + .ra: .cfa -4 + ^ r11: .cfa -8 + ^
STACK CFI 101e4 .cfa: r11 8 +
STACK CFI INIT 10234 58 .cfa: sp 0 + .ra: lr
STACK CFI 10238 .cfa: sp 8 + .ra: .cfa -4 + ^ r11: .cfa -8 + ^
STACK CFI 1023c .cfa: r11 8 +
STACK CFI INIT 1028c 188 .cfa: sp 0 + .ra: lr
STACK CFI 10290 .cfa: sp 36 + .ra: .cfa -4 + ^ r10: .cfa -12 + ^ r11: .cfa -8 + ^ r4: .cfa -36 + ^ r5: .cfa -32 + ^ r6: .cfa -28 + ^ r7: .cfa -24 + ^ r8: .cfa -20 + ^ r9: .cfa -16 + ^
STACK CFI 10294 .cfa: r11 8 +
STACK CFI INIT 10414 38 .cfa: sp 0 + .ra: lr
STACK CFI 10418 .cfa: sp 8 + .ra: .cfa -4 + ^ r11: .cfa -8 + ^
STACK CFI 1041c .cfa: r11 8 +
STACK CFI INIT 1044c d4 .cfa: sp 0 + .ra: lr
STACK CFI 10450 .cfa: sp 36 + .ra: .cfa -4 + ^ r10: .cfa -12 + ^ r11: .cfa -8 + ^ r4: .cfa -36 + ^ r5: .cfa -32 + ^ r6: .cfa -28 + ^ r7: .cfa -24 + ^ r8: .cfa -20 + ^ r9: .cfa -16 + ^
STACK CFI 10454 .cfa: r11 8 +
STACK CFI INIT 10520 e4 .cfa: sp 0 + .ra: lr
STACK CFI 10524 .cfa: sp 36 + .ra: .cfa -4 + ^ r10: .cfa -12 + ^ r11: .cfa -8 + ^ r4: .cfa -36 + ^ r5: .cfa -32 + ^ r6: .cfa -28 + ^ r7: .cfa -24 + ^ r8: .cfa -20 + ^ r9: .cfa -16 + ^
STACK CFI 10528 .cfa: r11 8 +
STACK CFI INIT 10604 104 .cfa: sp 0 + .ra: lr
STACK CFI 10608 .cfa: sp 32 + .ra: .cfa -4 + ^ r10: .cfa -12 + ^ r11: .cfa -8 + ^ r4: .cfa -32 + ^ r5: .cfa -28 + ^ r6: .cfa -24 + ^ r7: .cfa -20 + ^ r8: .cfa -16 + ^
STACK CFI 1060c .cfa: r11 8 +
STACK CFI INIT 10708 ac .cfa: sp 0 + .ra: lr
STACK CFI 1070c .cfa: sp 16 + .ra: .cfa -4 + ^ r11: .cfa -8 + ^ r4: .cfa -16 + ^ r5: .cfa -12 + ^
STACK CFI 10710 .cfa: r11 8 +
STACK CFI INIT 107b4 3cc .cfa: sp 0 + .ra: lr
STACK CFI 107b8 .cfa: sp 36 + .ra: .cfa -4 + ^ r10: .cfa -12 + ^ r11: .cfa -8 + ^ r4: .cfa -36 + ^ r5: .cfa -32 + ^ r6: .cfa -28 + ^ r7: .cfa -24 + ^ r8: .cfa -20 + ^ r9: .cfa -16 + ^
STACK CFI 107bc .cfa: r11 8 +
STACK CFI INIT 10b80 8 .cfa: sp 0 + .ra: lr
STACK CFI INIT 10b88 1ec .cfa: sp 0 + .ra: lr
STACK CFI 10b8c .cfa: sp 36 + .ra: .cfa -4 + ^ r10: .cfa -12 + ^ r11: .cfa -8 + ^ r4: .cfa -36 + ^ r5: .cfa -32 + ^ r6: .cfa -28 + ^ r7: .cfa -24 + ^ r8: .cfa -20 + ^ r9: .cfa -16 + ^
STACK CFI 10b90 .cfa: r11 8 +
STACK CFI INIT 10d74 1a4 .cfa: sp 0 + .ra: lr
STACK CFI 10d78 .cfa: sp 36 + .ra: .cfa -4 + ^ r10: .cfa -12 + ^ r11: .cfa -8 + ^ r4: .cfa -36 + ^ r5: .cfa -32 + ^ r6: .cfa -28 + ^ r7: .cfa -24 + ^ r8: .cfa -20 + ^ r9: .cfa -16 + ^
STACK CFI 10d7c .cfa: r11 8 +
STACK CFI INIT 10f18 b8 .cfa: sp 0 + .ra: lr
STACK CFI 10f1c .cfa: sp 32 + .ra: .cfa -4 + ^ r10: .cfa -12 + ^ r11: .cfa -8 + ^ r4: .cfa -32 + ^ r5: .cfa -28 + ^ r6: .cfa -24 + ^ r7: .cfa -20 + ^ r8: .cfa -16 + ^
STACK CFI 10f20 .cfa: r11 8 +
STACK CFI INIT 10fd0 2e4 .cfa: sp 0 + .ra: lr
STACK CFI 10fd4 .cfa: sp 36 + .ra: .cfa -4 + ^ r10: .cfa -12 + ^ r11: .cfa -8 + ^ r4: .cfa -36 + ^ r5: .cfa -32 + ^ r6: .cfa -28 + ^ r7: .cfa -24 + ^ r8: .cfa -20 + ^ r9: .cfa -16 + ^
STACK CFI 10fd8 .cfa: r11 8 +
STACK CFI INIT 112b4 14 .cfa: sp 0 + .ra: lr
STACK CFI 112b8 .cfa: sp 8 + .ra: .cfa -4 + ^ r11: .cfa -8 + ^
STACK CFI 112bc .cfa: r11 8 +
STACK CFI INIT dedc 138 .cfa: sp 0 + .ra: lr
STACK CFI dee0 .cfa: sp 32 + .ra: .cfa -4 + ^ r11: .cfa -8 + ^ r4: .cfa -32 + ^ r5: .cfa -28 + ^ r6: .cfa -24 + ^ r7: .cfa -20 + ^ r8: .cfa -16 + ^ r9: .cfa -12 + ^
STACK CFI dee4 .cfa: r11 8 +
STACK CFI INIT 112c8 188 .cfa: sp 0 + .ra: lr
STACK CFI 112cc .cfa: sp 36 + .ra: .cfa -4 + ^ r10: .cfa -12 + ^ r11: .cfa -8 + ^ r4: .cfa -36 + ^ r5: .cfa -32 + ^ r6: .cfa -28 + ^ r7: .cfa -24 + ^ r8: .cfa -20 + ^ r9: .cfa -16 + ^
STACK CFI 112d0 .cfa: r11 8 +
STACK CFI INIT 11450 e0 .cfa: sp 0 + .ra: lr
STACK CFI 11454 .cfa: sp 24 + .ra: .cfa -4 + ^ r11: .cfa -8 + ^ r4: .cfa -24 + ^ r5: .cfa -20 + ^ r6: .cfa -16 + ^ r7: .cfa -12 + ^
STACK CFI 11458 .cfa: r11 8 +
STACK CFI INIT 11530 190 .cfa: sp 0 + .ra: lr
STACK CFI 11534 .cfa: sp 36 + .ra: .cfa -4 + ^ r10: .cfa -12 + ^ r11: .cfa -8 + ^ r4: .cfa -36 + ^ r5: .cfa -32 + ^ r6: .cfa -28 + ^ r7: .cfa -24 + ^ r8: .cfa -20 + ^ r9: .cfa -16 + ^
STACK CFI 11538 .cfa: r11 8 +
STACK CFI INIT 116c0 e4 .cfa: sp 0 + .ra: lr
STACK CFI 116c4 .cfa: sp 24 + .ra: .cfa -4 + ^ r11: .cfa -8 + ^ r4: .cfa -24 + ^ r5: .cfa -20 + ^ r6: .cfa -16 + ^ r7: .cfa -12 + ^
STACK CFI 116c8 .cfa: r11 8 +
STACK CFI INIT 117a4 19c .cfa: sp 0 + .ra: lr
STACK CFI 117a8 .cfa: sp 32 + .ra: .cfa -4 + ^ r10: .cfa -12 + ^ r11: .cfa -8 + ^ r4: .cfa -32 + ^ r5: .cfa -28 + ^ r6: .cfa -24 + ^ r7: .cfa -20 + ^ r8: .cfa -16 + ^
STACK CFI 117ac .cfa: r11 8 +
STACK CFI INIT 11940 194 .cfa: sp 0 + .ra: lr
STACK CFI 11944 .cfa: sp 32 + .ra: .cfa -4 + ^ r11: .cfa -8 + ^ r4: .cfa -32 + ^ r5: .cfa -28 + ^ r6: .cfa -24 + ^ r7: .cfa -20 + ^ r8: .cfa -16 + ^ r9: .cfa -12 + ^
STACK CFI 11948 .cfa: r11 8 +
STACK CFI INIT 11ad4 2244 .cfa: sp 0 + .ra: lr
STACK CFI 11ad8 .cfa: sp 36 + .ra: .cfa -4 + ^ r10: .cfa -12 + ^ r11: .cfa -8 + ^ r4: .cfa -36 + ^ r5: .cfa -32 + ^ r6: .cfa -28 + ^ r7: .cfa -24 + ^ r8: .cfa -20 + ^ r9: .cfa -16 + ^
STACK CFI 11adc .cfa: r11 8 +
STACK CFI INIT 13d18 50 .cfa: sp 0 + .ra: lr
STACK CFI 13d1c .cfa: sp 24 + .ra: .cfa -4 + ^ r10: .cfa -12 + ^ r11: .cfa -8 + ^ r4: .cfa -24 + ^ r5: .cfa -20 + ^ r6: .cfa -16 + ^
STACK CFI 13d20 .cfa: r11 8 +
STACK CFI INIT 13d68 54 .cfa: sp 0 + .ra: lr
STACK CFI 13d6c .cfa: sp 24 + .ra: .cfa -4 + ^ r10: .cfa -12 + ^ r11: .cfa -8 + ^ r4: .cfa -24 + ^ r5: .cfa -20 + ^ r6: .cfa -16 + ^
STACK CFI 13d70 .cfa: r11 8 +
STACK CFI INIT 13dbc 58 .cfa: sp 0 + .ra: lr
STACK CFI 13dc0 .cfa: sp 24 + .ra: .cfa -4 + ^ r11: .cfa -8 + ^ r4: .cfa -24 + ^ r5: .cfa -20 + ^ r6: .cfa -16 + ^ r7: .cfa -12 + ^
STACK CFI 13dc4 .cfa: r11 8 +
STACK CFI INIT 13e14 5c .cfa: sp 0 + .ra: lr
STACK CFI 13e18 .cfa: sp 24 + .ra: .cfa -4 + ^ r11: .cfa -8 + ^ r4: .cfa -24 + ^ r5: .cfa -20 + ^ r6: .cfa -16 + ^ r7: .cfa -12 + ^
STACK CFI 13e1c .cfa: r11 8 +
STACK CFI INIT 13e70 114 .cfa: sp 0 + .ra: lr
STACK CFI 13e74 .cfa: sp 32 + .ra: .cfa -4 + ^ r11: .cfa -8 + ^ r4: .cfa -32 + ^ r5: .cfa -28 + ^ r6: .cfa -24 + ^ r7: .cfa -20 + ^ r8: .cfa -16 + ^ r9: .cfa -12 + ^
STACK CFI 13e78 .cfa: r11 8 +
STACK CFI INIT dedc 138 .cfa: sp 0 + .ra: lr
STACK CFI dee0 .cfa: sp 32 + .ra: .cfa -4 + ^ r11: .cfa -8 + ^ r4: .cfa -32 + ^ r5: .cfa -28 + ^ r6: .cfa -24 + ^ r7: .cfa -20 + ^ r8: .cfa -16 + ^ r9: .cfa -12 + ^
STACK CFI dee4 .cfa: r11 8 +
STACK CFI INIT 13f84 228 .cfa: sp 0 + .ra: lr
STACK CFI 13f88 .cfa: sp 36 + .ra: .cfa -4 + ^ r10: .cfa -12 + ^ r11: .cfa -8 + ^ r4: .cfa -36 + ^ r5: .cfa -32 + ^ r6: .cfa -28 + ^ r7: .cfa -24 + ^ r8: .cfa -20 + ^ r9: .cfa -16 + ^
STACK CFI 13f8c .cfa: r11 8 +
STACK CFI INIT 141ac 250 .cfa: sp 0 + .ra: lr
STACK CFI 141b0 .cfa: sp 36 + .ra: .cfa -4 + ^ r10: .cfa -12 + ^ r11: .cfa -8 + ^ r4: .cfa -36 + ^ r5: .cfa -32 + ^ r6: .cfa -28 + ^ r7: .cfa -24 + ^ r8: .cfa -20 + ^ r9: .cfa -16 + ^
STACK CFI 141b4 .cfa: r11 8 +
STACK CFI INIT 143fc 1bc .cfa: sp 0 + .ra: lr
STACK CFI 14400 .cfa: sp 36 + .ra: .cfa -4 + ^ r10: .cfa -12 + ^ r11: .cfa -8 + ^ r4: .cfa -36 + ^ r5: .cfa -32 + ^ r6: .cfa -28 + ^ r7: .cfa -24 + ^ r8: .cfa -20 + ^ r9: .cfa -16 + ^
STACK CFI 14404 .cfa: r11 8 +
STACK CFI INIT 145b8 1d0 .cfa: sp 0 + .ra: lr
STACK CFI 145bc .cfa: sp 32 + .ra: .cfa -4 + ^ r11: .cfa -8 + ^ r4: .cfa -32 + ^ r5: .cfa -28 + ^ r6: .cfa -24 + ^ r7: .cfa -20 + ^ r8: .cfa -16 + ^ r9: .cfa -12 + ^
STACK CFI 145c0 .cfa: r11 8 +
STACK CFI INIT e568 1e4 .cfa: sp 0 + .ra: lr
STACK CFI e56c .cfa: sp 36 + .ra: .cfa -4 + ^ r10: .cfa -12 + ^ r11: .cfa -8 + ^ r4: .cfa -36 + ^ r5: .cfa -32 + ^ r6: .cfa -28 + ^ r7: .cfa -24 + ^ r8: .cfa -20 + ^ r9: .cfa -16 + ^
STACK CFI e570 .cfa: r11 8 +
STACK CFI INIT 14788 1a0 .cfa: sp 0 + .ra: lr
STACK CFI 1478c .cfa: sp 36 + .ra: .cfa -4 + ^ r10: .cfa -12 + ^ r11: .cfa -8 + ^ r4: .cfa -36 + ^ r5: .cfa -32 + ^ r6: .cfa -28 + ^ r7: .cfa -24 + ^ r8: .cfa -20 + ^ r9: .cfa -16 + ^
STACK CFI 14790 .cfa: r11 8 +
STACK CFI INIT 14928 1d8 .cfa: sp 0 + .ra: lr
STACK CFI 1492c .cfa: sp 36 + .ra: .cfa -4 + ^ r10: .cfa -12 + ^ r11: .cfa -8 + ^ r4: .cfa -36 + ^ r5: .cfa -32 + ^ r6: .cfa -28 + ^ r7: .cfa -24 + ^ r8: .cfa -20 + ^ r9: .cfa -16 + ^
STACK CFI 14930 .cfa: r11 8 +
STACK CFI INIT 14b00 168 .cfa: sp 0 + .ra: lr
STACK CFI 14b04 .cfa: sp 36 + .ra: .cfa -4 + ^ r10: .cfa -12 + ^ r11: .cfa -8 + ^ r4: .cfa -36 + ^ r5: .cfa -32 + ^ r6: .cfa -28 + ^ r7: .cfa -24 + ^ r8: .cfa -20 + ^ r9: .cfa -16 + ^
STACK CFI 14b08 .cfa: r11 8 +
STACK CFI INIT 14c68 19c .cfa: sp 0 + .ra: lr
STACK CFI 14c6c .cfa: sp 32 + .ra: .cfa -4 + ^ r11: .cfa -8 + ^ r4: .cfa -32 + ^ r5: .cfa -28 + ^ r6: .cfa -24 + ^ r7: .cfa -20 + ^ r8: .cfa -16 + ^ r9: .cfa -12 + ^
STACK CFI 14c70 .cfa: r11 8 +
STACK CFI INIT 14e04 20 .cfa: sp 0 + .ra: lr
STACK CFI INIT 14e24 90 .cfa: sp 0 + .ra: lr
STACK CFI 14e28 .cfa: sp 16 + .ra: .cfa -4 + ^ r11: .cfa -8 + ^ r4: .cfa -16 + ^ r5: .cfa -12 + ^
STACK CFI 14e2c .cfa: r11 8 +
STACK CFI INIT 14eb4 a8 .cfa: sp 0 + .ra: lr
STACK CFI 14eb8 .cfa: sp 16 + .ra: .cfa -4 + ^ r11: .cfa -8 + ^ r4: .cfa -16 + ^ r5: .cfa -12 + ^
STACK CFI 14ebc .cfa: r11 8 +
STACK CFI INIT 14f5c 60 .cfa: sp 0 + .ra: lr
STACK CFI 14f60 .cfa: sp 16 + .ra: .cfa -4 + ^ r11: .cfa -8 + ^ r4: .cfa -16 + ^ r5: .cfa -12 + ^
STACK CFI 14f64 .cfa: r11 8 +
STACK CFI INIT 14fbc b4 .cfa: sp 0 + .ra: lr
STACK CFI 14fc0 .cfa: sp 16 + .ra: .cfa -4 + ^ r10: .cfa -12 + ^ r11: .cfa -8 + ^ r4: .cfa -16 + ^
STACK CFI 14fc4 .cfa: r11 8 +
STACK CFI INIT 15070 16c .cfa: sp 0 + .ra: lr
STACK CFI 15074 .cfa: sp 36 + .ra: .cfa -4 + ^ r10: .cfa -12 + ^ r11: .cfa -8 + ^ r4: .cfa -36 + ^ r5: .cfa -32 + ^ r6: .cfa -28 + ^ r7: .cfa -24 + ^ r8: .cfa -20 + ^ r9: .cfa -16 + ^
STACK CFI 15078 .cfa: r11 8 +
STACK CFI INIT 151dc 160 .cfa: sp 0 + .ra: lr
STACK CFI 151e0 .cfa: sp 36 + .ra: .cfa -4 + ^ r10: .cfa -12 + ^ r11: .cfa -8 + ^ r4: .cfa -36 + ^ r5: .cfa -32 + ^ r6: .cfa -28 + ^ r7: .cfa -24 + ^ r8: .cfa -20 + ^ r9: .cfa -16 + ^
STACK CFI 151e4 .cfa: r11 8 +
STACK CFI INIT 1533c 4 .cfa: sp 0 + .ra: lr
STACK CFI INIT 15340 2cc .cfa: sp 0 + .ra: lr
STACK CFI 15344 .cfa: sp 36 + .ra: .cfa -4 + ^ r10: .cfa -12 + ^ r11: .cfa -8 + ^ r4: .cfa -36 + ^ r5: .cfa -32 + ^ r6: .cfa -28 + ^ r7: .cfa -24 + ^ r8: .cfa -20 + ^ r9: .cfa -16 + ^
STACK CFI 15348 .cfa: r11 8 +
STACK CFI INIT 1560c 4 .cfa: sp 0 + .ra: lr
STACK CFI INIT 15610 2cc .cfa: sp 0 + .ra: lr
STACK CFI 15614 .cfa: sp 36 + .ra: .cfa -4 + ^ r10: .cfa -12 + ^ r11: .cfa -8 + ^ r4: .cfa -36 + ^ r5: .cfa -32 + ^ r6: .cfa -28 + ^ r7: .cfa -24 + ^ r8: .cfa -20 + ^ r9: .cfa -16 + ^
STACK CFI 15618 .cfa: r11 8 +
STACK CFI INIT 158dc 180 .cfa: sp 0 + .ra: lr
STACK CFI 158e0 .cfa: sp 36 + .ra: .cfa -4 + ^ r10: .cfa -12 + ^ r11: .cfa -8 + ^ r4: .cfa -36 + ^ r5: .cfa -32 + ^ r6: .cfa -28 + ^ r7: .cfa -24 + ^ r8: .cfa -20 + ^ r9: .cfa -16 + ^
STACK CFI 158e4 .cfa: r11 8 +
STACK CFI INIT 15a5c c0 .cfa: sp 0 + .ra: lr
STACK CFI 15a60 .cfa: sp 32 + .ra: .cfa -4 + ^ r10: .cfa -12 + ^ r11: .cfa -8 + ^ r4: .cfa -32 + ^ r5: .cfa -28 + ^ r6: .cfa -24 + ^ r7: .cfa -20 + ^ r8: .cfa -16 + ^
STACK CFI 15a64 .cfa: r11 8 +
STACK CFI INIT 15b1c b0 .cfa: sp 0 + .ra: lr
STACK CFI 15b20 .cfa: sp 24 + .ra: .cfa -4 + ^ r11: .cfa -8 + ^ r4: .cfa -24 + ^ r5: .cfa -20 + ^ r6: .cfa -16 + ^ r7: .cfa -12 + ^
STACK CFI 15b24 .cfa: r11 8 +
STACK CFI INIT 15bcc c0 .cfa: sp 0 + .ra: lr
STACK CFI 15bd0 .cfa: sp 32 + .ra: .cfa -4 + ^ r10: .cfa -12 + ^ r11: .cfa -8 + ^ r4: .cfa -32 + ^ r5: .cfa -28 + ^ r6: .cfa -24 + ^ r7: .cfa -20 + ^ r8: .cfa -16 + ^
STACK CFI 15bd4 .cfa: r11 8 +
STACK CFI INIT 15c8c c0 .cfa: sp 0 + .ra: lr
STACK CFI 15c90 .cfa: sp 32 + .ra: .cfa -4 + ^ r10: .cfa -12 + ^ r11: .cfa -8 + ^ r4: .cfa -32 + ^ r5: .cfa -28 + ^ r6: .cfa -24 + ^ r7: .cfa -20 + ^ r8: .cfa -16 + ^
STACK CFI 15c94 .cfa: r11 8 +
STACK CFI INIT 15d88 1a4 .cfa: sp 0 + .ra: lr
STACK CFI 15d8c .cfa: sp 24 + .ra: .cfa -4 + ^ r11: .cfa -8 + ^ r4: .cfa -24 + ^ r5: .cfa -20 + ^ r6: .cfa -16 + ^ r7: .cfa -12 + ^
STACK CFI 15d90 .cfa: r11 8 +
STACK CFI INIT 15f2c ac .cfa: sp 0 + .ra: lr
STACK CFI 15f30 .cfa: sp 36 + .ra: .cfa -4 + ^ r10: .cfa -12 + ^ r11: .cfa -8 + ^ r4: .cfa -36 + ^ r5: .cfa -32 + ^ r6: .cfa -28 + ^ r7: .cfa -24 + ^ r8: .cfa -20 + ^ r9: .cfa -16 + ^
STACK CFI 15f34 .cfa: r11 8 +
STACK CFI INIT 15fd8 1a4 .cfa: sp 0 + .ra: lr
STACK CFI 15fdc .cfa: sp 24 + .ra: .cfa -4 + ^ r11: .cfa -8 + ^ r4: .cfa -24 + ^ r5: .cfa -20 + ^ r6: .cfa -16 + ^ r7: .cfa -12 + ^
STACK CFI 15fe0 .cfa: r11 8 +
STACK CFI INIT 1617c 80 .cfa: sp 0 + .ra: lr
STACK CFI 16180 .cfa: sp 16 + .ra: .cfa -4 + ^ r11: .cfa -8 + ^ r4: .cfa -16 + ^ r5: .cfa -12 + ^
STACK CFI 16184 .cfa: r11 8 +
STACK CFI INIT 161fc 1bc .cfa: sp 0 + .ra: lr
STACK CFI 16200 .cfa: sp 36 + .ra: .cfa -4 + ^ r10: .cfa -12 + ^ r11: .cfa -8 + ^ r4: .cfa -36 + ^ r5: .cfa -32 + ^ r6: .cfa -28 + ^ r7: .cfa -24 + ^ r8: .cfa -20 + ^ r9: .cfa -16 + ^
STACK CFI 16204 .cfa: r11 8 +
STACK CFI INIT 163b8 188 .cfa: sp 0 + .ra: lr
STACK CFI 163bc .cfa: sp 36 + .ra: .cfa -4 + ^ r10: .cfa -12 + ^ r11: .cfa -8 + ^ r4: .cfa -36 + ^ r5: .cfa -32 + ^ r6: .cfa -28 + ^ r7: .cfa -24 + ^ r8: .cfa -20 + ^ r9: .cfa -16 + ^
STACK CFI 163c0 .cfa: r11 8 +
STACK CFI INIT 16540 1c0 .cfa: sp 0 + .ra: lr
STACK CFI 16544 .cfa: sp 36 + .ra: .cfa -4 + ^ r10: .cfa -12 + ^ r11: .cfa -8 + ^ r4: .cfa -36 + ^ r5: .cfa -32 + ^ r6: .cfa -28 + ^ r7: .cfa -24 + ^ r8: .cfa -20 + ^ r9: .cfa -16 + ^
STACK CFI 16548 .cfa: r11 8 +
STACK CFI INIT 16700 30 .cfa: sp 0 + .ra: lr
STACK CFI 16704 .cfa: sp 8 + .ra: .cfa -4 + ^ r11: .cfa -8 + ^
STACK CFI 16708 .cfa: r11 8 +
STACK CFI INIT 16730 8 .cfa: sp 0 + .ra: lr
STACK CFI INIT 16738 1f0 .cfa: sp 0 + .ra: lr
STACK CFI 1673c .cfa: sp 36 + .ra: .cfa -4 + ^ r10: .cfa -12 + ^ r11: .cfa -8 + ^ r4: .cfa -36 + ^ r5: .cfa -32 + ^ r6: .cfa -28 + ^ r7: .cfa -24 + ^ r8: .cfa -20 + ^ r9: .cfa -16 + ^
STACK CFI 16740 .cfa: r11 8 +
STACK CFI INIT 16928 1d0 .cfa: sp 0 + .ra: lr
STACK CFI 1692c .cfa: sp 36 + .ra: .cfa -4 + ^ r10: .cfa -12 + ^ r11: .cfa -8 + ^ r4: .cfa -36 + ^ r5: .cfa -32 + ^ r6: .cfa -28 + ^ r7: .cfa -24 + ^ r8: .cfa -20 + ^ r9: .cfa -16 + ^
STACK CFI 16930 .cfa: r11 8 +
STACK CFI INIT 16af8 180 .cfa: sp 0 + .ra: lr
STACK CFI 16afc .cfa: sp 36 + .ra: .cfa -4 + ^ r10: .cfa -12 + ^ r11: .cfa -8 + ^ r4: .cfa -36 + ^ r5: .cfa -32 + ^ r6: .cfa -28 + ^ r7: .cfa -24 + ^ r8: .cfa -20 + ^ r9: .cfa -16 + ^
STACK CFI 16b00 .cfa: r11 8 +
STACK CFI INIT dedc 138 .cfa: sp 0 + .ra: lr
STACK CFI dee0 .cfa: sp 32 + .ra: .cfa -4 + ^ r11: .cfa -8 + ^ r4: .cfa -32 + ^ r5: .cfa -28 + ^ r6: .cfa -24 + ^ r7: .cfa -20 + ^ r8: .cfa -16 + ^ r9: .cfa -12 + ^
STACK CFI dee4 .cfa: r11 8 +
STACK CFI INIT 16c78 f4 .cfa: sp 0 + .ra: lr
STACK CFI 16c7c .cfa: sp 32 + .ra: .cfa -4 + ^ r10: .cfa -12 + ^ r11: .cfa -8 + ^ r4: .cfa -32 + ^ r5: .cfa -28 + ^ r6: .cfa -24 + ^ r7: .cfa -20 + ^ r8: .cfa -16 + ^
STACK CFI 16c80 .cfa: r11 8 +
STACK CFI INIT 16d6c 428 .cfa: sp 0 + .ra: lr
STACK CFI 16d70 .cfa: sp 32 + .ra: .cfa -4 + ^ r11: .cfa -8 + ^ r4: .cfa -32 + ^ r5: .cfa -28 + ^ r6: .cfa -24 + ^ r7: .cfa -20 + ^ r8: .cfa -16 + ^ r9: .cfa -12 + ^
STACK CFI 16d74 .cfa: r11 8 +
STACK CFI INIT 17194 80 .cfa: sp 0 + .ra: lr
STACK CFI 17198 .cfa: sp 16 + .ra: .cfa -4 + ^ r11: .cfa -8 + ^ r4: .cfa -16 + ^ r5: .cfa -12 + ^
STACK CFI 1719c .cfa: r11 8 +
STACK CFI INIT 17214 134 .cfa: sp 0 + .ra: lr
STACK CFI 17218 .cfa: sp 32 + .ra: .cfa -4 + ^ r10: .cfa -12 + ^ r11: .cfa -8 + ^ r4: .cfa -32 + ^ r5: .cfa -28 + ^ r6: .cfa -24 + ^ r7: .cfa -20 + ^ r8: .cfa -16 + ^
STACK CFI 1721c .cfa: r11 8 +
STACK CFI INIT 17348 ac .cfa: sp 0 + .ra: lr
STACK CFI 1734c .cfa: sp 32 + .ra: .cfa -4 + ^ r10: .cfa -12 + ^ r11: .cfa -8 + ^ r4: .cfa -32 + ^ r5: .cfa -28 + ^ r6: .cfa -24 + ^ r7: .cfa -20 + ^ r8: .cfa -16 + ^
STACK CFI 17350 .cfa: r11 8 +
STACK CFI INIT dedc 138 .cfa: sp 0 + .ra: lr
STACK CFI dee0 .cfa: sp 32 + .ra: .cfa -4 + ^ r11: .cfa -8 + ^ r4: .cfa -32 + ^ r5: .cfa -28 + ^ r6: .cfa -24 + ^ r7: .cfa -20 + ^ r8: .cfa -16 + ^ r9: .cfa -12 + ^
STACK CFI dee4 .cfa: r11 8 +
STACK CFI INIT e568 1e4 .cfa: sp 0 + .ra: lr
STACK CFI e56c .cfa: sp 36 + .ra: .cfa -4 + ^ r10: .cfa -12 + ^ r11: .cfa -8 + ^ r4: .cfa -36 + ^ r5: .cfa -32 + ^ r6: .cfa -28 + ^ r7: .cfa -24 + ^ r8: .cfa -20 + ^ r9: .cfa -16 + ^
STACK CFI e570 .cfa: r11 8 +
STACK CFI INIT 173f4 168 .cfa: sp 0 + .ra: lr
STACK CFI 173f8 .cfa: sp 36 + .ra: .cfa -4 + ^ r10: .cfa -12 + ^ r11: .cfa -8 + ^ r4: .cfa -36 + ^ r5: .cfa -32 + ^ r6: .cfa -28 + ^ r7: .cfa -24 + ^ r8: .cfa -20 + ^ r9: .cfa -16 + ^
STACK CFI 173fc .cfa: r11 8 +
STACK CFI INIT 1755c 19c .cfa: sp 0 + .ra: lr
STACK CFI 17560 .cfa: sp 32 + .ra: .cfa -4 + ^ r11: .cfa -8 + ^ r4: .cfa -32 + ^ r5: .cfa -28 + ^ r6: .cfa -24 + ^ r7: .cfa -20 + ^ r8: .cfa -16 + ^ r9: .cfa -12 + ^
STACK CFI 17564 .cfa: r11 8 +
STACK CFI INIT c7f0 210 .cfa: sp 0 + .ra: lr
STACK CFI c7f4 .cfa: sp 36 + .ra: .cfa -4 + ^ r10: .cfa -12 + ^ r11: .cfa -8 + ^ r4: .cfa -36 + ^ r5: .cfa -32 + ^ r6: .cfa -28 + ^ r7: .cfa -24 + ^ r8: .cfa -20 + ^ r9: .cfa -16 + ^
STACK CFI c7f8 .cfa: r11 8 +
STACK CFI INIT 176f8 ac .cfa: sp 0 + .ra: lr
STACK CFI 176fc .cfa: sp 24 + .ra: .cfa -4 + ^ r10: .cfa -12 + ^ r11: .cfa -8 + ^ r4: .cfa -24 + ^ r5: .cfa -20 + ^ r6: .cfa -16 + ^
STACK CFI 17700 .cfa: r11 8 +
STACK CFI INIT 177a4 7c .cfa: sp 0 + .ra: lr
STACK CFI 177a8 .cfa: sp 24 + .ra: .cfa -4 + ^ r10: .cfa -12 + ^ r11: .cfa -8 + ^ r4: .cfa -24 + ^ r5: .cfa -20 + ^ r6: .cfa -16 + ^
STACK CFI 177ac .cfa: r11 8 +
STACK CFI INIT 17820 ac .cfa: sp 0 + .ra: lr
STACK CFI 17824 .cfa: sp 16 + .ra: .cfa -4 + ^ r10: .cfa -12 + ^ r11: .cfa -8 + ^ r4: .cfa -16 + ^
STACK CFI 17828 .cfa: r11 8 +
STACK CFI INIT 178cc 28 .cfa: sp 0 + .ra: lr
STACK CFI 178d0 .cfa: sp 8 + .ra: .cfa -4 + ^ r11: .cfa -8 + ^
STACK CFI 178d4 .cfa: r11 8 +
STACK CFI INIT 178f4 2c .cfa: sp 0 + .ra: lr
STACK CFI INIT 17920 64 .cfa: sp 0 + .ra: lr
STACK CFI 17924 .cfa: sp 8 + .ra: .cfa -4 + ^ r11: .cfa -8 + ^
STACK CFI 17928 .cfa: r11 8 +
STACK CFI INIT 17984 6c .cfa: sp 0 + .ra: lr
STACK CFI 17988 .cfa: sp 8 + .ra: .cfa -4 + ^ r11: .cfa -8 + ^
STACK CFI 1798c .cfa: r11 8 +
STACK CFI INIT 179f0 68 .cfa: sp 0 + .ra: lr
STACK CFI 179f4 .cfa: sp 8 + .ra: .cfa -4 + ^ r11: .cfa -8 + ^
STACK CFI 179f8 .cfa: r11 8 +
STACK CFI INIT 17a58 5c .cfa: sp 0 + .ra: lr
STACK CFI 17a5c .cfa: sp 24 + .ra: .cfa -4 + ^ r10: .cfa -12 + ^ r11: .cfa -8 + ^ r4: .cfa -24 + ^ r5: .cfa -20 + ^ r6: .cfa -16 + ^
STACK CFI 17a60 .cfa: r11 8 +
STACK CFI INIT 17ab4 48 .cfa: sp 0 + .ra: lr
STACK CFI 17ab8 .cfa: sp 16 + .ra: .cfa -4 + ^ r11: .cfa -8 + ^ r4: .cfa -16 + ^ r5: .cfa -12 + ^
STACK CFI 17abc .cfa: r11 8 +
STACK CFI INIT 17afc 20 .cfa: sp 0 + .ra: lr
STACK CFI INIT 17b1c 44 .cfa: sp 0 + .ra: lr
STACK CFI 17b20 .cfa: sp 16 + .ra: .cfa -4 + ^ r10: .cfa -12 + ^ r11: .cfa -8 + ^ r4: .cfa -16 + ^
STACK CFI 17b24 .cfa: r11 8 +
STACK CFI INIT 17b60 34 .cfa: sp 0 + .ra: lr
STACK CFI INIT 17b94 68 .cfa: sp 0 + .ra: lr
STACK CFI 17b98 .cfa: sp 8 + .ra: .cfa -4 + ^ r11: .cfa -8 + ^
STACK CFI 17b9c .cfa: r11 8 +
STACK CFI INIT 17bfc 58 .cfa: sp 0 + .ra: lr
STACK CFI 17c00 .cfa: sp 16 + .ra: .cfa -4 + ^ r10: .cfa -12 + ^ r11: .cfa -8 + ^ r4: .cfa -16 + ^
STACK CFI 17c04 .cfa: r11 8 +
STACK CFI INIT 17c54 28 .cfa: sp 0 + .ra: lr
STACK CFI 17c64 .cfa: sp 8 + .ra: .cfa -4 + ^ r11: .cfa -8 + ^
STACK CFI 17c68 .cfa: r11 8 +
STACK CFI INIT 17c7c 60 .cfa: sp 0 + .ra: lr
STACK CFI 17c80 .cfa: sp 16 + .ra: .cfa -4 + ^ r10: .cfa -12 + ^ r11: .cfa -8 + ^ r4: .cfa -16 + ^
STACK CFI 17c84 .cfa: r11 8 +
STACK CFI INIT 17cdc 98 .cfa: sp 0 + .ra: lr
STACK CFI 17ce0 .cfa: sp 16 + .ra: .cfa -4 + ^ r11: .cfa -8 + ^ r4: .cfa -16 + ^ r5: .cfa -12 + ^
STACK CFI 17ce4 .cfa: r11 8 +
STACK CFI INIT 17d74 38 .cfa: sp 0 + .ra: lr
STACK CFI INIT 17dac 10 .cfa: sp 0 + .ra: lr
STACK CFI INIT 17dbc 28 .cfa: sp 0 + .ra: lr
STACK CFI 17dc0 .cfa: sp 16 + .ra: .cfa -4 + ^ r10: .cfa -12 + ^ r11: .cfa -8 + ^ r4: .cfa -16 + ^
STACK CFI 17dc4 .cfa: r11 8 +
STACK CFI INIT 17de4 214 .cfa: sp 0 + .ra: lr
STACK CFI 17de8 .cfa: sp 32 + .ra: .cfa -4 + ^ r11: .cfa -8 + ^ r4: .cfa -32 + ^ r5: .cfa -28 + ^ r6: .cfa -24 + ^ r7: .cfa -20 + ^ r8: .cfa -16 + ^ r9: .cfa -12 + ^
STACK CFI 17dec .cfa: r11 8 +
STACK CFI INIT 17ff8 5c .cfa: sp 0 + .ra: lr
STACK CFI 17ffc .cfa: sp 16 + .ra: .cfa -4 + ^ r11: .cfa -8 + ^ r4: .cfa -16 + ^ r5: .cfa -12 + ^
STACK CFI 18000 .cfa: r11 8 +
STACK CFI INIT 18054 58 .cfa: sp 0 + .ra: lr
STACK CFI 18058 .cfa: sp 16 + .ra: .cfa -4 + ^ r11: .cfa -8 + ^ r4: .cfa -16 + ^ r5: .cfa -12 + ^
STACK CFI 1805c .cfa: r11 8 +
STACK CFI INIT 180ac 64 .cfa: sp 0 + .ra: lr
STACK CFI 180b0 .cfa: sp 16 + .ra: .cfa -4 + ^ r10: .cfa -12 + ^ r11: .cfa -8 + ^ r4: .cfa -16 + ^
STACK CFI 180b4 .cfa: r11 8 +
STACK CFI INIT 18110 3c .cfa: sp 0 + .ra: lr
STACK CFI 18114 .cfa: sp 16 + .ra: .cfa -4 + ^ r10: .cfa -12 + ^ r11: .cfa -8 + ^ r4: .cfa -16 + ^
STACK CFI 18118 .cfa: r11 8 +
STACK CFI INIT 1814c 4 .cfa: sp 0 + .ra: lr
STACK CFI INIT 18150 4 .cfa: sp 0 + .ra: lr
STACK CFI INIT 18154 208 .cfa: sp 0 + .ra: lr
STACK CFI 18158 .cfa: sp 32 + .ra: .cfa -4 + ^ r11: .cfa -8 + ^ r4: .cfa -32 + ^ r5: .cfa -28 + ^ r6: .cfa -24 + ^ r7: .cfa -20 + ^ r8: .cfa -16 + ^ r9: .cfa -12 + ^
STACK CFI 1815c .cfa: r11 8 +
STACK CFI INIT 1835c 8 .cfa: sp 0 + .ra: lr
STACK CFI INIT 18364 94 .cfa: sp 0 + .ra: lr
STACK CFI INIT 183f8 1c .cfa: sp 0 + .ra: lr
STACK CFI INIT 18414 1c .cfa: sp 0 + .ra: lr
STACK CFI INIT 18430 8 .cfa: sp 0 + .ra: lr
STACK CFI INIT 18438 8 .cfa: sp 0 + .ra: lr
STACK CFI INIT 18440 cc .cfa: sp 0 + .ra: lr
STACK CFI 18444 .cfa: sp 16 + .ra: .cfa -4 + ^ r10: .cfa -12 + ^ r11: .cfa -8 + ^ r4: .cfa -16 + ^
STACK CFI 18448 .cfa: r11 8 +
STACK CFI INIT 1850c 134 .cfa: sp 0 + .ra: lr
STACK CFI 18510 .cfa: sp 36 + .ra: .cfa -4 + ^ r10: .cfa -12 + ^ r11: .cfa -8 + ^ r4: .cfa -36 + ^ r5: .cfa -32 + ^ r6: .cfa -28 + ^ r7: .cfa -24 + ^ r8: .cfa -20 + ^ r9: .cfa -16 + ^
STACK CFI 18514 .cfa: r11 8 +
STACK CFI INIT 18640 c8 .cfa: sp 0 + .ra: lr
STACK CFI 18644 .cfa: sp 36 + .ra: .cfa -4 + ^ r10: .cfa -12 + ^ r11: .cfa -8 + ^ r4: .cfa -36 + ^ r5: .cfa -32 + ^ r6: .cfa -28 + ^ r7: .cfa -24 + ^ r8: .cfa -20 + ^ r9: .cfa -16 + ^
STACK CFI 18648 .cfa: r11 8 +
STACK CFI INIT 18708 18c .cfa: sp 0 + .ra: lr
STACK CFI 1870c .cfa: sp 36 + .ra: .cfa -4 + ^ r10: .cfa -12 + ^ r11: .cfa -8 + ^ r4: .cfa -36 + ^ r5: .cfa -32 + ^ r6: .cfa -28 + ^ r7: .cfa -24 + ^ r8: .cfa -20 + ^ r9: .cfa -16 + ^
STACK CFI 18710 .cfa: r11 8 +
STACK CFI INIT 18894 184 .cfa: sp 0 + .ra: lr
STACK CFI 18898 .cfa: sp 16 + .ra: .cfa -4 + ^ r11: .cfa -8 + ^ r4: .cfa -16 + ^ r5: .cfa -12 + ^
STACK CFI 1889c .cfa: r11 8 +
STACK CFI INIT 18a18 2e4 .cfa: sp 0 + .ra: lr
STACK CFI 18a1c .cfa: sp 36 + .ra: .cfa -4 + ^ r10: .cfa -12 + ^ r11: .cfa -8 + ^ r4: .cfa -36 + ^ r5: .cfa -32 + ^ r6: .cfa -28 + ^ r7: .cfa -24 + ^ r8: .cfa -20 + ^ r9: .cfa -16 + ^
STACK CFI 18a20 .cfa: r11 8 +
STACK CFI INIT 18cfc 154 .cfa: sp 0 + .ra: lr
STACK CFI 18d00 .cfa: sp 36 + .ra: .cfa -4 + ^ r10: .cfa -12 + ^ r11: .cfa -8 + ^ r4: .cfa -36 + ^ r5: .cfa -32 + ^ r6: .cfa -28 + ^ r7: .cfa -24 + ^ r8: .cfa -20 + ^ r9: .cfa -16 + ^
STACK CFI 18d04 .cfa: r11 8 +
STACK CFI INIT 18e50 298 .cfa: sp 0 + .ra: lr
STACK CFI 18e54 .cfa: sp 36 + .ra: .cfa -4 + ^ r10: .cfa -12 + ^ r11: .cfa -8 + ^ r4: .cfa -36 + ^ r5: .cfa -32 + ^ r6: .cfa -28 + ^ r7: .cfa -24 + ^ r8: .cfa -20 + ^ r9: .cfa -16 + ^
STACK CFI 18e58 .cfa: r11 8 +
STACK CFI INIT 1c198 a8 .cfa: sp 0 + .ra: lr
STACK CFI INIT 1c260 3c .cfa: sp 0 + .ra: lr
STACK CFI 1c288 .cfa: sp 16 + .ra: .cfa -12 + ^
STACK CFI INIT 1c2ac 3c .cfa: sp 0 + .ra: lr
STACK CFI 1c2b0 .cfa: sp 24 + .ra: .cfa -4 + ^ r3: .cfa -24 + ^ r4: .cfa -20 + ^ r5: .cfa -16 + ^ r6: .cfa -12 + ^ r7: .cfa -8 + ^
STACK CFI INIT 1c2e8 3c .cfa: sp 0 + .ra: lr
STACK CFI 1c2ec .cfa: sp 24 + .ra: .cfa -4 + ^ r3: .cfa -24 + ^ r4: .cfa -20 + ^ r5: .cfa -16 + ^ r6: .cfa -12 + ^ r7: .cfa -8 + ^
STACK CFI INIT 1c324 18 .cfa: sp 0 + .ra: lr
STACK CFI INIT 1c33c a4 .cfa: sp 0 + .ra: lr
STACK CFI 1c340 .cfa: sp 48 + .ra: .cfa -4 + ^ r10: .cfa -12 + ^ r11: .cfa -8 + ^ r4: .cfa -36 + ^ r5: .cfa -32 + ^ r6: .cfa -28 + ^ r7: .cfa -24 + ^ r8: .cfa -20 + ^ r9: .cfa -16 + ^
STACK CFI 1c3dc .cfa: sp 36 +
STACK CFI INIT 1c3e0 50 .cfa: sp 0 + .ra: lr
STACK CFI INIT 1c430 100 .cfa: sp 0 + .ra: lr
STACK CFI 1c438 .cfa: sp 24 + .ra: .cfa -4 + ^ r4: .cfa -12 + ^ r5: .cfa -8 + ^
STACK CFI 1c520 .cfa: sp 12 +
STACK CFI INIT 1c530 6c .cfa: sp 0 + .ra: lr
STACK CFI 1c538 .cfa: sp 8 + .ra: .cfa -4 + ^ r4: .cfa -8 + ^
STACK CFI 1c598 .cfa: sp 0 + .ra: .ra r4: r4
STACK CFI INIT 1c59c 14 .cfa: sp 0 + .ra: lr
STACK CFI INIT 1c5b0 8 .cfa: sp 0 + .ra: lr
STACK CFI INIT 1c5b8 4 .cfa: sp 0 + .ra: lr
STACK CFI INIT 1c5bc 64 .cfa: sp 0 + .ra: lr
STACK CFI 1c5c0 .cfa: sp 16 + .ra: .cfa -4 + ^ r4: .cfa -16 + ^ r5: .cfa -12 + ^ r6: .cfa -8 + ^
STACK CFI INIT 1c620 128 .cfa: sp 0 + .ra: lr
STACK CFI 1c624 .cfa: sp 36 + .ra: .cfa -4 + ^ r10: .cfa -12 + ^ r11: .cfa -8 + ^ r4: .cfa -36 + ^ r5: .cfa -32 + ^ r6: .cfa -28 + ^ r7: .cfa -24 + ^ r8: .cfa -20 + ^ r9: .cfa -16 + ^
STACK CFI 1c640 .cfa: sp 1008 +
STACK CFI 1c744 .cfa: sp 36 +
STACK CFI INIT 1c748 8 .cfa: sp 0 + .ra: lr
STACK CFI INIT 1c750 a4 .cfa: sp 0 + .ra: lr
STACK CFI 1c758 .cfa: sp 20 + .ra: .cfa -4 + ^ r4: .cfa -20 + ^ r5: .cfa -16 + ^ r6: .cfa -12 + ^ r7: .cfa -8 + ^
STACK CFI 1c76c .cfa: sp 504 +
STACK CFI 1c7f0 .cfa: sp 20 +
STACK CFI INIT 1c7f4 1c .cfa: sp 0 + .ra: lr
STACK CFI INIT 1c810 74 .cfa: sp 0 + .ra: lr
STACK CFI 1c814 .cfa: sp 16 + .ra: .cfa -4 + ^ r4: .cfa -16 + ^ r5: .cfa -12 + ^ r6: .cfa -8 + ^
STACK CFI INIT 1c884 20 .cfa: sp 0 + .ra: lr
STACK CFI INIT 1c8a4 4 .cfa: sp 0 + .ra: lr
STACK CFI INIT 1c8a8 18 .cfa: sp 0 + .ra: lr
STACK CFI INIT 1c8c0 5c .cfa: sp 0 + .ra: lr
STACK CFI INIT 1c91c 28 .cfa: sp 0 + .ra: lr
STACK CFI 1c920 .cfa: sp 24 + .ra: .cfa -4 + ^
STACK CFI 1c940 .cfa: sp 4 +
STACK CFI INIT 1c944 5c .cfa: sp 0 + .ra: lr
STACK CFI INIT 1c9a0 2c .cfa: sp 0 + .ra: lr
STACK CFI 1c9a4 .cfa: sp 24 + .ra: .cfa -4 + ^
STACK CFI 1c9c8 .cfa: sp 4 +
STACK CFI INIT 1c9cc c8 .cfa: sp 0 + .ra: lr
STACK CFI 1c9d8 .cfa: sp 24 + .ra: .cfa -4 + ^ r4: .cfa -24 + ^ r5: .cfa -20 + ^ r6: .cfa -16 + ^ r7: .cfa -12 + ^ r8: .cfa -8 + ^
STACK CFI 1c9ec .cfa: sp 592 +
STACK CFI 1ca90 .cfa: sp 24 +
STACK CFI INIT 1ca94 3ec .cfa: sp 0 + .ra: lr
STACK CFI 1ca98 .cfa: sp 36 + .ra: .cfa -4 + ^ r10: .cfa -12 + ^ r11: .cfa -8 + ^ r4: .cfa -36 + ^ r5: .cfa -32 + ^ r6: .cfa -28 + ^ r7: .cfa -24 + ^ r8: .cfa -20 + ^ r9: .cfa -16 + ^
STACK CFI 1caa4 .cfa: sp 72 +
STACK CFI 1ce78 .cfa: sp 36 +
STACK CFI INIT 1ce80 8 .cfa: sp 0 + .ra: lr
STACK CFI INIT 1ce88 8 .cfa: sp 0 + .ra: lr
STACK CFI INIT 1ce90 8 .cfa: sp 0 + .ra: lr
STACK CFI INIT 1ce98 360 .cfa: sp 0 + .ra: lr
STACK CFI 1ce9c .cfa: sp 28 + .ra: .cfa -4 + ^ r4: .cfa -28 + ^ r5: .cfa -24 + ^ r6: .cfa -20 + ^ r7: .cfa -16 + ^ r8: .cfa -12 + ^ r9: .cfa -8 + ^
STACK CFI 1cea4 .cfa: sp 296 +
STACK CFI 1d1f4 .cfa: sp 28 +
STACK CFI INIT 1d3a0 60 .cfa: sp 0 + .ra: lr
STACK CFI INIT 1d400 28 .cfa: sp 0 + .ra: lr
STACK CFI 1d404 .cfa: sp 24 + .ra: .cfa -4 + ^
STACK CFI 1d424 .cfa: sp 4 +
STACK CFI INIT 1d428 4 .cfa: sp 0 + .ra: lr
STACK CFI INIT 1d42c 398 .cfa: sp 0 + .ra: lr
STACK CFI 1d430 .cfa: sp 28 + .ra: .cfa -4 + ^ r4: .cfa -28 + ^ r5: .cfa -24 + ^ r6: .cfa -20 + ^ r7: .cfa -16 + ^ r8: .cfa -12 + ^ r9: .cfa -8 + ^
STACK CFI 1d434 .cfa: sp 48 +
STACK CFI 1d7c0 .cfa: sp 28 +
STACK CFI INIT 1d7c4 40 .cfa: sp 0 + .ra: lr
STACK CFI 1d7c8 .cfa: sp 24 + .ra: .cfa -4 + ^
STACK CFI 1d800 .cfa: sp 4 +
STACK CFI INIT 1d804 10 .cfa: sp 0 + .ra: lr
STACK CFI 1d808 .cfa: sp 8 + .ra: .cfa -4 + ^ r3: .cfa -8 + ^
STACK CFI INIT 1d814 1c .cfa: sp 0 + .ra: lr
STACK CFI 1d818 .cfa: sp 8 + .ra: .cfa -4 + ^ r3: .cfa -8 + ^
STACK CFI INIT 1d830 8 .cfa: sp 0 + .ra: lr
STACK CFI 1d834 .cfa: sp 8 + .ra: .cfa -4 + ^ r3: .cfa -8 + ^
STACK CFI INIT 1d838 8 .cfa: sp 0 + .ra: lr
STACK CFI 1d83c .cfa: sp 8 + .ra: .cfa -4 + ^ r3: .cfa -8 + ^
STACK CFI INIT 1d840 17c .cfa: sp 0 + .ra: lr
STACK CFI 1d84c .cfa: sp 48 + .ra: .cfa -4 + ^ r10: .cfa -12 + ^ r11: .cfa -8 + ^ r4: .cfa -36 + ^ r5: .cfa -32 + ^ r6: .cfa -28 + ^ r7: .cfa -24 + ^ r8: .cfa -20 + ^ r9: .cfa -16 + ^
STACK CFI 1d9b8 .cfa: sp 36 +
STACK CFI INIT 1d9bc 10c .cfa: sp 0 + .ra: lr
STACK CFI 1d9c8 .cfa: sp 40 + .ra: .cfa -4 + ^ r10: .cfa -12 + ^ r11: .cfa -8 + ^ r3: .cfa -40 + ^ r4: .cfa -36 + ^ r5: .cfa -32 + ^ r6: .cfa -28 + ^ r7: .cfa -24 + ^ r8: .cfa -20 + ^ r9: .cfa -16 + ^
